
F407_Vet.elf:     file format elf32-littlearm

Sections:
Idx Name          Size      VMA       LMA       File off  Algn
  0 .isr_vector   000001a8  08000000  08000000  00010000  2**0
                  CONTENTS, ALLOC, LOAD, READONLY, DATA
  1 .text         00000fd8  080001b0  080001b0  000101b0  2**4
                  CONTENTS, ALLOC, LOAD, READONLY, CODE
  2 .rodata       00000010  08001188  08001188  00011188  2**2
                  CONTENTS, ALLOC, LOAD, READONLY, DATA
  3 .ARM.extab    00000000  08001198  08001198  00020004  2**0
                  CONTENTS
  4 .ARM          00000000  08001198  08001198  00020004  2**0
                  CONTENTS
  5 .preinit_array 00000000  08001198  08001198  00020004  2**0
                  CONTENTS, ALLOC, LOAD, DATA
  6 .init_array   00000004  08001198  08001198  00011198  2**2
                  CONTENTS, ALLOC, LOAD, DATA
  7 .fini_array   00000004  0800119c  0800119c  0001119c  2**2
                  CONTENTS, ALLOC, LOAD, DATA
  8 .data         00000004  20000000  080011a0  00020000  2**2
                  CONTENTS, ALLOC, LOAD, DATA
  9 .ccmram       00000000  10000000  10000000  00020004  2**0
                  CONTENTS
 10 .bss          000000d8  20000004  20000004  00020004  2**2
                  ALLOC
 11 ._user_heap_stack 00000604  200000dc  200000dc  00020004  2**0
                  ALLOC
 12 .ARM.attributes 00000030  00000000  00000000  00020004  2**0
                  CONTENTS, READONLY
 13 .debug_info   00006af9  00000000  00000000  00020034  2**0
                  CONTENTS, READONLY, DEBUGGING, OCTETS
 14 .debug_abbrev 000013e0  00000000  00000000  00026b2d  2**0
                  CONTENTS, READONLY, DEBUGGING, OCTETS
 15 .debug_aranges 000004a0  00000000  00000000  00027f10  2**3
                  CONTENTS, READONLY, DEBUGGING, OCTETS
 16 .debug_ranges 00000408  00000000  00000000  000283b0  2**3
                  CONTENTS, READONLY, DEBUGGING, OCTETS
 17 .debug_line   00003e1b  00000000  00000000  000287b8  2**0
                  CONTENTS, READONLY, DEBUGGING, OCTETS
 18 .debug_str    0000270c  00000000  00000000  0002c5d3  2**0
                  CONTENTS, READONLY, DEBUGGING, OCTETS
 19 .comment      00000050  00000000  00000000  0002ecdf  2**0
                  CONTENTS, READONLY
 20 .debug_frame  000010bc  00000000  00000000  0002ed30  2**2
                  CONTENTS, READONLY, DEBUGGING, OCTETS
 21 .stabstr      000001b9  00000000  00000000  0002fdec  2**0
                  CONTENTS, READONLY, DEBUGGING

Disassembly of section .text:

080001b0 <__do_global_dtors_aux>:
 80001b0:	b510      	push	{r4, lr}
 80001b2:	4c05      	ldr	r4, [pc, #20]	; (80001c8 <__do_global_dtors_aux+0x18>)
 80001b4:	7823      	ldrb	r3, [r4, #0]
 80001b6:	b933      	cbnz	r3, 80001c6 <__do_global_dtors_aux+0x16>
 80001b8:	4b04      	ldr	r3, [pc, #16]	; (80001cc <__do_global_dtors_aux+0x1c>)
 80001ba:	b113      	cbz	r3, 80001c2 <__do_global_dtors_aux+0x12>
 80001bc:	4804      	ldr	r0, [pc, #16]	; (80001d0 <__do_global_dtors_aux+0x20>)
 80001be:	f3af 8000 	nop.w
 80001c2:	2301      	movs	r3, #1
 80001c4:	7023      	strb	r3, [r4, #0]
 80001c6:	bd10      	pop	{r4, pc}
 80001c8:	20000004 	.word	0x20000004
 80001cc:	00000000 	.word	0x00000000
 80001d0:	08001170 	.word	0x08001170

080001d4 <frame_dummy>:
 80001d4:	b508      	push	{r3, lr}
 80001d6:	4b03      	ldr	r3, [pc, #12]	; (80001e4 <frame_dummy+0x10>)
 80001d8:	b11b      	cbz	r3, 80001e2 <frame_dummy+0xe>
 80001da:	4903      	ldr	r1, [pc, #12]	; (80001e8 <frame_dummy+0x14>)
 80001dc:	4803      	ldr	r0, [pc, #12]	; (80001ec <frame_dummy+0x18>)
 80001de:	f3af 8000 	nop.w
 80001e2:	bd08      	pop	{r3, pc}
 80001e4:	00000000 	.word	0x00000000
 80001e8:	20000008 	.word	0x20000008
 80001ec:	08001170 	.word	0x08001170

080001f0 <SystemInit>:
  *         configuration.
  * @param  None
  * @retval None
  */
void SystemInit(void)
{
 80001f0:	b480      	push	{r7}
 80001f2:	af00      	add	r7, sp, #0
  /* FPU settings ------------------------------------------------------------*/
  #if (__FPU_PRESENT == 1) && (__FPU_USED == 1)
    SCB->CPACR |= ((3UL << 10*2)|(3UL << 11*2));  /* set CP10 and CP11 Full Access */
 80001f4:	4b06      	ldr	r3, [pc, #24]	; (8000210 <SystemInit+0x20>)
 80001f6:	f8d3 3088 	ldr.w	r3, [r3, #136]	; 0x88
 80001fa:	4a05      	ldr	r2, [pc, #20]	; (8000210 <SystemInit+0x20>)
 80001fc:	f443 0370 	orr.w	r3, r3, #15728640	; 0xf00000
 8000200:	f8c2 3088 	str.w	r3, [r2, #136]	; 0x88

  /* Configure the Vector Table location -------------------------------------*/
#if defined(USER_VECT_TAB_ADDRESS)
  SCB->VTOR = VECT_TAB_BASE_ADDRESS | VECT_TAB_OFFSET; /* Vector Table Relocation in Internal SRAM */
#endif /* USER_VECT_TAB_ADDRESS */
}
 8000204:	bf00      	nop
 8000206:	46bd      	mov	sp, r7
 8000208:	f85d 7b04 	ldr.w	r7, [sp], #4
 800020c:	4770      	bx	lr
 800020e:	bf00      	nop
 8000210:	e000ed00 	.word	0xe000ed00

08000214 <SystemCoreClockUpdate>:
  *     
  * @param  None
  * @retval None
  */
void SystemCoreClockUpdate(void)
{
 8000214:	b480      	push	{r7}
 8000216:	b087      	sub	sp, #28
 8000218:	af00      	add	r7, sp, #0
  uint32_t tmp = 0, pllvco = 0, pllp = 2, pllsource = 0, pllm = 2;
 800021a:	2300      	movs	r3, #0
 800021c:	613b      	str	r3, [r7, #16]
 800021e:	2300      	movs	r3, #0
 8000220:	617b      	str	r3, [r7, #20]
 8000222:	2302      	movs	r3, #2
 8000224:	60fb      	str	r3, [r7, #12]
 8000226:	2300      	movs	r3, #0
 8000228:	60bb      	str	r3, [r7, #8]
 800022a:	2302      	movs	r3, #2
 800022c:	607b      	str	r3, [r7, #4]
  
  /* Get SYSCLK source -------------------------------------------------------*/
  tmp = RCC->CFGR & RCC_CFGR_SWS;
 800022e:	4b34      	ldr	r3, [pc, #208]	; (8000300 <SystemCoreClockUpdate+0xec>)
 8000230:	689b      	ldr	r3, [r3, #8]
 8000232:	f003 030c 	and.w	r3, r3, #12
 8000236:	613b      	str	r3, [r7, #16]

  switch (tmp)
 8000238:	693b      	ldr	r3, [r7, #16]
 800023a:	2b08      	cmp	r3, #8
 800023c:	d011      	beq.n	8000262 <SystemCoreClockUpdate+0x4e>
 800023e:	693b      	ldr	r3, [r7, #16]
 8000240:	2b08      	cmp	r3, #8
 8000242:	d844      	bhi.n	80002ce <SystemCoreClockUpdate+0xba>
 8000244:	693b      	ldr	r3, [r7, #16]
 8000246:	2b00      	cmp	r3, #0
 8000248:	d003      	beq.n	8000252 <SystemCoreClockUpdate+0x3e>
 800024a:	693b      	ldr	r3, [r7, #16]
 800024c:	2b04      	cmp	r3, #4
 800024e:	d004      	beq.n	800025a <SystemCoreClockUpdate+0x46>
 8000250:	e03d      	b.n	80002ce <SystemCoreClockUpdate+0xba>
  {
    case 0x00:  /* HSI used as system clock source */
      SystemCoreClock = HSI_VALUE;
 8000252:	4b2c      	ldr	r3, [pc, #176]	; (8000304 <SystemCoreClockUpdate+0xf0>)
 8000254:	4a2c      	ldr	r2, [pc, #176]	; (8000308 <SystemCoreClockUpdate+0xf4>)
 8000256:	601a      	str	r2, [r3, #0]
      break;
 8000258:	e03d      	b.n	80002d6 <SystemCoreClockUpdate+0xc2>
    case 0x04:  /* HSE used as system clock source */
      SystemCoreClock = HSE_VALUE;
 800025a:	4b2a      	ldr	r3, [pc, #168]	; (8000304 <SystemCoreClockUpdate+0xf0>)
 800025c:	4a2b      	ldr	r2, [pc, #172]	; (800030c <SystemCoreClockUpdate+0xf8>)
 800025e:	601a      	str	r2, [r3, #0]
      break;
 8000260:	e039      	b.n	80002d6 <SystemCoreClockUpdate+0xc2>
    case 0x08:  /* PLL used as system clock source */

      /* PLL_VCO = (HSE_VALUE or HSI_VALUE / PLL_M) * PLL_N
         SYSCLK = PLL_VCO / PLL_P
         */    
      pllsource = (RCC->PLLCFGR & RCC_PLLCFGR_PLLSRC) >> 22;
 8000262:	4b27      	ldr	r3, [pc, #156]	; (8000300 <SystemCoreClockUpdate+0xec>)
 8000264:	685b      	ldr	r3, [r3, #4]
 8000266:	0d9b      	lsrs	r3, r3, #22
 8000268:	f003 0301 	and.w	r3, r3, #1
 800026c:	60bb      	str	r3, [r7, #8]
      pllm = RCC->PLLCFGR & RCC_PLLCFGR_PLLM;
 800026e:	4b24      	ldr	r3, [pc, #144]	; (8000300 <SystemCoreClockUpdate+0xec>)
 8000270:	685b      	ldr	r3, [r3, #4]
 8000272:	f003 033f 	and.w	r3, r3, #63	; 0x3f
 8000276:	607b      	str	r3, [r7, #4]
      
      if (pllsource != 0)
 8000278:	68bb      	ldr	r3, [r7, #8]
 800027a:	2b00      	cmp	r3, #0
 800027c:	d00c      	beq.n	8000298 <SystemCoreClockUpdate+0x84>
      {
        /* HSE used as PLL clock source */
        pllvco = (HSE_VALUE / pllm) * ((RCC->PLLCFGR & RCC_PLLCFGR_PLLN) >> 6);
 800027e:	4a23      	ldr	r2, [pc, #140]	; (800030c <SystemCoreClockUpdate+0xf8>)
 8000280:	687b      	ldr	r3, [r7, #4]
 8000282:	fbb2 f3f3 	udiv	r3, r2, r3
 8000286:	4a1e      	ldr	r2, [pc, #120]	; (8000300 <SystemCoreClockUpdate+0xec>)
 8000288:	6852      	ldr	r2, [r2, #4]
 800028a:	0992      	lsrs	r2, r2, #6
 800028c:	f3c2 0208 	ubfx	r2, r2, #0, #9
 8000290:	fb02 f303 	mul.w	r3, r2, r3
 8000294:	617b      	str	r3, [r7, #20]
 8000296:	e00b      	b.n	80002b0 <SystemCoreClockUpdate+0x9c>
      }
      else
      {
        /* HSI used as PLL clock source */
        pllvco = (HSI_VALUE / pllm) * ((RCC->PLLCFGR & RCC_PLLCFGR_PLLN) >> 6);
 8000298:	4a1b      	ldr	r2, [pc, #108]	; (8000308 <SystemCoreClockUpdate+0xf4>)
 800029a:	687b      	ldr	r3, [r7, #4]
 800029c:	fbb2 f3f3 	udiv	r3, r2, r3
 80002a0:	4a17      	ldr	r2, [pc, #92]	; (8000300 <SystemCoreClockUpdate+0xec>)
 80002a2:	6852      	ldr	r2, [r2, #4]
 80002a4:	0992      	lsrs	r2, r2, #6
 80002a6:	f3c2 0208 	ubfx	r2, r2, #0, #9
 80002aa:	fb02 f303 	mul.w	r3, r2, r3
 80002ae:	617b      	str	r3, [r7, #20]
      }

      pllp = (((RCC->PLLCFGR & RCC_PLLCFGR_PLLP) >>16) + 1 ) *2;
 80002b0:	4b13      	ldr	r3, [pc, #76]	; (8000300 <SystemCoreClockUpdate+0xec>)
 80002b2:	685b      	ldr	r3, [r3, #4]
 80002b4:	0c1b      	lsrs	r3, r3, #16
 80002b6:	f003 0303 	and.w	r3, r3, #3
 80002ba:	3301      	adds	r3, #1
 80002bc:	005b      	lsls	r3, r3, #1
 80002be:	60fb      	str	r3, [r7, #12]
      SystemCoreClock = pllvco/pllp;
 80002c0:	697a      	ldr	r2, [r7, #20]
 80002c2:	68fb      	ldr	r3, [r7, #12]
 80002c4:	fbb2 f3f3 	udiv	r3, r2, r3
 80002c8:	4a0e      	ldr	r2, [pc, #56]	; (8000304 <SystemCoreClockUpdate+0xf0>)
 80002ca:	6013      	str	r3, [r2, #0]
      break;
 80002cc:	e003      	b.n	80002d6 <SystemCoreClockUpdate+0xc2>
    default:
      SystemCoreClock = HSI_VALUE;
 80002ce:	4b0d      	ldr	r3, [pc, #52]	; (8000304 <SystemCoreClockUpdate+0xf0>)
 80002d0:	4a0d      	ldr	r2, [pc, #52]	; (8000308 <SystemCoreClockUpdate+0xf4>)
 80002d2:	601a      	str	r2, [r3, #0]
      break;
 80002d4:	bf00      	nop
  }
  /* Compute HCLK frequency --------------------------------------------------*/
  /* Get HCLK prescaler */
  tmp = AHBPrescTable[((RCC->CFGR & RCC_CFGR_HPRE) >> 4)];
 80002d6:	4b0a      	ldr	r3, [pc, #40]	; (8000300 <SystemCoreClockUpdate+0xec>)
 80002d8:	689b      	ldr	r3, [r3, #8]
 80002da:	091b      	lsrs	r3, r3, #4
 80002dc:	f003 030f 	and.w	r3, r3, #15
 80002e0:	4a0b      	ldr	r2, [pc, #44]	; (8000310 <SystemCoreClockUpdate+0xfc>)
 80002e2:	5cd3      	ldrb	r3, [r2, r3]
 80002e4:	613b      	str	r3, [r7, #16]
  /* HCLK frequency */
  SystemCoreClock >>= tmp;
 80002e6:	4b07      	ldr	r3, [pc, #28]	; (8000304 <SystemCoreClockUpdate+0xf0>)
 80002e8:	681a      	ldr	r2, [r3, #0]
 80002ea:	693b      	ldr	r3, [r7, #16]
 80002ec:	fa22 f303 	lsr.w	r3, r2, r3
 80002f0:	4a04      	ldr	r2, [pc, #16]	; (8000304 <SystemCoreClockUpdate+0xf0>)
 80002f2:	6013      	str	r3, [r2, #0]
}
 80002f4:	bf00      	nop
 80002f6:	371c      	adds	r7, #28
 80002f8:	46bd      	mov	sp, r7
 80002fa:	f85d 7b04 	ldr.w	r7, [sp], #4
 80002fe:	4770      	bx	lr
 8000300:	40023800 	.word	0x40023800
 8000304:	20000000 	.word	0x20000000
 8000308:	00f42400 	.word	0x00f42400
 800030c:	017d7840 	.word	0x017d7840
 8000310:	08001188 	.word	0x08001188

08000314 <__NVIC_EnableIRQ>:
  \details Enables a device specific interrupt in the NVIC interrupt controller.
  \param [in]      IRQn  Device specific interrupt number.
  \note    IRQn must not be negative.
 */
__STATIC_INLINE void __NVIC_EnableIRQ(IRQn_Type IRQn)
{
 8000314:	b480      	push	{r7}
 8000316:	b083      	sub	sp, #12
 8000318:	af00      	add	r7, sp, #0
 800031a:	4603      	mov	r3, r0
 800031c:	71fb      	strb	r3, [r7, #7]
  if ((int32_t)(IRQn) >= 0)
 800031e:	f997 3007 	ldrsb.w	r3, [r7, #7]
 8000322:	2b00      	cmp	r3, #0
 8000324:	db0b      	blt.n	800033e <__NVIC_EnableIRQ+0x2a>
  {
    NVIC->ISER[(((uint32_t)IRQn) >> 5UL)] = (uint32_t)(1UL << (((uint32_t)IRQn) & 0x1FUL));
 8000326:	79fb      	ldrb	r3, [r7, #7]
 8000328:	f003 021f 	and.w	r2, r3, #31
 800032c:	4907      	ldr	r1, [pc, #28]	; (800034c <__NVIC_EnableIRQ+0x38>)
 800032e:	f997 3007 	ldrsb.w	r3, [r7, #7]
 8000332:	095b      	lsrs	r3, r3, #5
 8000334:	2001      	movs	r0, #1
 8000336:	fa00 f202 	lsl.w	r2, r0, r2
 800033a:	f841 2023 	str.w	r2, [r1, r3, lsl #2]
  }
}
 800033e:	bf00      	nop
 8000340:	370c      	adds	r7, #12
 8000342:	46bd      	mov	sp, r7
 8000344:	f85d 7b04 	ldr.w	r7, [sp], #4
 8000348:	4770      	bx	lr
 800034a:	bf00      	nop
 800034c:	e000e100 	.word	0xe000e100

08000350 <__NVIC_ClearPendingIRQ>:
  \details Clears the pending bit of a device specific interrupt in the NVIC pending register.
  \param [in]      IRQn  Device specific interrupt number.
  \note    IRQn must not be negative.
 */
__STATIC_INLINE void __NVIC_ClearPendingIRQ(IRQn_Type IRQn)
{
 8000350:	b480      	push	{r7}
 8000352:	b083      	sub	sp, #12
 8000354:	af00      	add	r7, sp, #0
 8000356:	4603      	mov	r3, r0
 8000358:	71fb      	strb	r3, [r7, #7]
  if ((int32_t)(IRQn) >= 0)
 800035a:	f997 3007 	ldrsb.w	r3, [r7, #7]
 800035e:	2b00      	cmp	r3, #0
 8000360:	db0c      	blt.n	800037c <__NVIC_ClearPendingIRQ+0x2c>
  {
    NVIC->ICPR[(((uint32_t)IRQn) >> 5UL)] = (uint32_t)(1UL << (((uint32_t)IRQn) & 0x1FUL));
 8000362:	79fb      	ldrb	r3, [r7, #7]
 8000364:	f003 021f 	and.w	r2, r3, #31
 8000368:	4907      	ldr	r1, [pc, #28]	; (8000388 <__NVIC_ClearPendingIRQ+0x38>)
 800036a:	f997 3007 	ldrsb.w	r3, [r7, #7]
 800036e:	095b      	lsrs	r3, r3, #5
 8000370:	2001      	movs	r0, #1
 8000372:	fa00 f202 	lsl.w	r2, r0, r2
 8000376:	3360      	adds	r3, #96	; 0x60
 8000378:	f841 2023 	str.w	r2, [r1, r3, lsl #2]
  }
}
 800037c:	bf00      	nop
 800037e:	370c      	adds	r7, #12
 8000380:	46bd      	mov	sp, r7
 8000382:	f85d 7b04 	ldr.w	r7, [sp], #4
 8000386:	4770      	bx	lr
 8000388:	e000e100 	.word	0xe000e100

0800038c <GPIO_RCC_init>:
void w5500_init(void);
void GPIOe_out_init();
void SPI_init(void);
void RTC_init(void);

void GPIO_RCC_init(void){
 800038c:	b480      	push	{r7}
 800038e:	af00      	add	r7, sp, #0

  /*Тактирование порта на шине AHB1 */
  RCC->AHB1ENR |= RCC_AHB1ENR_GPIOAEN;
 8000390:	4b0e      	ldr	r3, [pc, #56]	; (80003cc <GPIO_RCC_init+0x40>)
 8000392:	6b1b      	ldr	r3, [r3, #48]	; 0x30
 8000394:	4a0d      	ldr	r2, [pc, #52]	; (80003cc <GPIO_RCC_init+0x40>)
 8000396:	f043 0301 	orr.w	r3, r3, #1
 800039a:	6313      	str	r3, [r2, #48]	; 0x30
  RCC->AHB1ENR |= RCC_AHB1ENR_GPIOBEN;
 800039c:	4b0b      	ldr	r3, [pc, #44]	; (80003cc <GPIO_RCC_init+0x40>)
 800039e:	6b1b      	ldr	r3, [r3, #48]	; 0x30
 80003a0:	4a0a      	ldr	r2, [pc, #40]	; (80003cc <GPIO_RCC_init+0x40>)
 80003a2:	f043 0302 	orr.w	r3, r3, #2
 80003a6:	6313      	str	r3, [r2, #48]	; 0x30
  RCC->AHB1ENR |= RCC_AHB1ENR_GPIOCEN;
 80003a8:	4b08      	ldr	r3, [pc, #32]	; (80003cc <GPIO_RCC_init+0x40>)
 80003aa:	6b1b      	ldr	r3, [r3, #48]	; 0x30
 80003ac:	4a07      	ldr	r2, [pc, #28]	; (80003cc <GPIO_RCC_init+0x40>)
 80003ae:	f043 0304 	orr.w	r3, r3, #4
 80003b2:	6313      	str	r3, [r2, #48]	; 0x30
  RCC->AHB1ENR |= RCC_AHB1ENR_GPIOEEN;
 80003b4:	4b05      	ldr	r3, [pc, #20]	; (80003cc <GPIO_RCC_init+0x40>)
 80003b6:	6b1b      	ldr	r3, [r3, #48]	; 0x30
 80003b8:	4a04      	ldr	r2, [pc, #16]	; (80003cc <GPIO_RCC_init+0x40>)
 80003ba:	f043 0310 	orr.w	r3, r3, #16
 80003be:	6313      	str	r3, [r2, #48]	; 0x30

}
 80003c0:	bf00      	nop
 80003c2:	46bd      	mov	sp, r7
 80003c4:	f85d 7b04 	ldr.w	r7, [sp], #4
 80003c8:	4770      	bx	lr
 80003ca:	bf00      	nop
 80003cc:	40023800 	.word	0x40023800

080003d0 <TIM6_DAC_IRQHandler>:
    return MB_ENOREG;
}



void TIM6_DAC_IRQHandler(void){
 80003d0:	b580      	push	{r7, lr}
 80003d2:	af00      	add	r7, sp, #0
  if(TIM6->SR & TIM_SR_UIF){
 80003d4:	4b46      	ldr	r3, [pc, #280]	; (80004f0 <TIM6_DAC_IRQHandler+0x120>)
 80003d6:	691b      	ldr	r3, [r3, #16]
 80003d8:	f003 0301 	and.w	r3, r3, #1
 80003dc:	2b00      	cmp	r3, #0
 80003de:	f000 8085 	beq.w	80004ec <TIM6_DAC_IRQHandler+0x11c>
    if(READ_BIT(GPIOE->IDR, GPIO_IDR_IDR_10) == 0){
 80003e2:	4b44      	ldr	r3, [pc, #272]	; (80004f4 <TIM6_DAC_IRQHandler+0x124>)
 80003e4:	691b      	ldr	r3, [r3, #16]
 80003e6:	f403 6380 	and.w	r3, r3, #1024	; 0x400
 80003ea:	2b00      	cmp	r3, #0
 80003ec:	d119      	bne.n	8000422 <TIM6_DAC_IRQHandler+0x52>
      if(s1_cnt < DEBOUNCE_CNT_BTN){
 80003ee:	4b42      	ldr	r3, [pc, #264]	; (80004f8 <TIM6_DAC_IRQHandler+0x128>)
 80003f0:	681b      	ldr	r3, [r3, #0]
 80003f2:	2b10      	cmp	r3, #16
 80003f4:	d808      	bhi.n	8000408 <TIM6_DAC_IRQHandler+0x38>
        s1_cnt++;
 80003f6:	4b40      	ldr	r3, [pc, #256]	; (80004f8 <TIM6_DAC_IRQHandler+0x128>)
 80003f8:	681b      	ldr	r3, [r3, #0]
 80003fa:	3301      	adds	r3, #1
 80003fc:	4a3e      	ldr	r2, [pc, #248]	; (80004f8 <TIM6_DAC_IRQHandler+0x128>)
 80003fe:	6013      	str	r3, [r2, #0]
        s1_state = 0;
 8000400:	4b3e      	ldr	r3, [pc, #248]	; (80004fc <TIM6_DAC_IRQHandler+0x12c>)
 8000402:	2200      	movs	r2, #0
 8000404:	701a      	strb	r2, [r3, #0]
 8000406:	e012      	b.n	800042e <TIM6_DAC_IRQHandler+0x5e>
      }else{
        s1_state = 1;
 8000408:	4b3c      	ldr	r3, [pc, #240]	; (80004fc <TIM6_DAC_IRQHandler+0x12c>)
 800040a:	2201      	movs	r2, #1
 800040c:	701a      	strb	r2, [r3, #0]
        s1_cnt = 0;
 800040e:	4b3a      	ldr	r3, [pc, #232]	; (80004f8 <TIM6_DAC_IRQHandler+0x128>)
 8000410:	2200      	movs	r2, #0
 8000412:	601a      	str	r2, [r3, #0]
        EXTI->SWIER |= EXTI_SWIER_SWIER10;
 8000414:	4b3a      	ldr	r3, [pc, #232]	; (8000500 <TIM6_DAC_IRQHandler+0x130>)
 8000416:	691b      	ldr	r3, [r3, #16]
 8000418:	4a39      	ldr	r2, [pc, #228]	; (8000500 <TIM6_DAC_IRQHandler+0x130>)
 800041a:	f443 6380 	orr.w	r3, r3, #1024	; 0x400
 800041e:	6113      	str	r3, [r2, #16]
 8000420:	e005      	b.n	800042e <TIM6_DAC_IRQHandler+0x5e>
      }
    }else{
      s1_state = 0;
 8000422:	4b36      	ldr	r3, [pc, #216]	; (80004fc <TIM6_DAC_IRQHandler+0x12c>)
 8000424:	2200      	movs	r2, #0
 8000426:	701a      	strb	r2, [r3, #0]
      s1_cnt = 0;
 8000428:	4b33      	ldr	r3, [pc, #204]	; (80004f8 <TIM6_DAC_IRQHandler+0x128>)
 800042a:	2200      	movs	r2, #0
 800042c:	601a      	str	r2, [r3, #0]
    }

    if(READ_BIT(GPIOE->IDR, GPIO_IDR_IDR_11) == 0){
 800042e:	4b31      	ldr	r3, [pc, #196]	; (80004f4 <TIM6_DAC_IRQHandler+0x124>)
 8000430:	691b      	ldr	r3, [r3, #16]
 8000432:	f403 6300 	and.w	r3, r3, #2048	; 0x800
 8000436:	2b00      	cmp	r3, #0
 8000438:	d119      	bne.n	800046e <TIM6_DAC_IRQHandler+0x9e>
      if(s2_cnt < DEBOUNCE_CNT_BTN){
 800043a:	4b32      	ldr	r3, [pc, #200]	; (8000504 <TIM6_DAC_IRQHandler+0x134>)
 800043c:	681b      	ldr	r3, [r3, #0]
 800043e:	2b10      	cmp	r3, #16
 8000440:	d808      	bhi.n	8000454 <TIM6_DAC_IRQHandler+0x84>
        s2_cnt++;
 8000442:	4b30      	ldr	r3, [pc, #192]	; (8000504 <TIM6_DAC_IRQHandler+0x134>)
 8000444:	681b      	ldr	r3, [r3, #0]
 8000446:	3301      	adds	r3, #1
 8000448:	4a2e      	ldr	r2, [pc, #184]	; (8000504 <TIM6_DAC_IRQHandler+0x134>)
 800044a:	6013      	str	r3, [r2, #0]
        s2_state = 0;
 800044c:	4b2e      	ldr	r3, [pc, #184]	; (8000508 <TIM6_DAC_IRQHandler+0x138>)
 800044e:	2200      	movs	r2, #0
 8000450:	701a      	strb	r2, [r3, #0]
 8000452:	e012      	b.n	800047a <TIM6_DAC_IRQHandler+0xaa>
      }else{
        s2_state = 1;
 8000454:	4b2c      	ldr	r3, [pc, #176]	; (8000508 <TIM6_DAC_IRQHandler+0x138>)
 8000456:	2201      	movs	r2, #1
 8000458:	701a      	strb	r2, [r3, #0]
        s2_cnt = 0;
 800045a:	4b2a      	ldr	r3, [pc, #168]	; (8000504 <TIM6_DAC_IRQHandler+0x134>)
 800045c:	2200      	movs	r2, #0
 800045e:	601a      	str	r2, [r3, #0]
        EXTI->SWIER |= EXTI_SWIER_SWIER11;
 8000460:	4b27      	ldr	r3, [pc, #156]	; (8000500 <TIM6_DAC_IRQHandler+0x130>)
 8000462:	691b      	ldr	r3, [r3, #16]
 8000464:	4a26      	ldr	r2, [pc, #152]	; (8000500 <TIM6_DAC_IRQHandler+0x130>)
 8000466:	f443 6300 	orr.w	r3, r3, #2048	; 0x800
 800046a:	6113      	str	r3, [r2, #16]
 800046c:	e005      	b.n	800047a <TIM6_DAC_IRQHandler+0xaa>
      }
    }else{
      s2_state = 0;
 800046e:	4b26      	ldr	r3, [pc, #152]	; (8000508 <TIM6_DAC_IRQHandler+0x138>)
 8000470:	2200      	movs	r2, #0
 8000472:	701a      	strb	r2, [r3, #0]
      s2_cnt = 0;
 8000474:	4b23      	ldr	r3, [pc, #140]	; (8000504 <TIM6_DAC_IRQHandler+0x134>)
 8000476:	2200      	movs	r2, #0
 8000478:	601a      	str	r2, [r3, #0]
    }

    if(READ_BIT(GPIOE->IDR, GPIO_IDR_IDR_12) == 0){
 800047a:	4b1e      	ldr	r3, [pc, #120]	; (80004f4 <TIM6_DAC_IRQHandler+0x124>)
 800047c:	691b      	ldr	r3, [r3, #16]
 800047e:	f403 5380 	and.w	r3, r3, #4096	; 0x1000
 8000482:	2b00      	cmp	r3, #0
 8000484:	d119      	bne.n	80004ba <TIM6_DAC_IRQHandler+0xea>
      if(s3_cnt < DEBOUNCE_CNT_BTN){
 8000486:	4b21      	ldr	r3, [pc, #132]	; (800050c <TIM6_DAC_IRQHandler+0x13c>)
 8000488:	681b      	ldr	r3, [r3, #0]
 800048a:	2b10      	cmp	r3, #16
 800048c:	d808      	bhi.n	80004a0 <TIM6_DAC_IRQHandler+0xd0>
        s3_cnt++;
 800048e:	4b1f      	ldr	r3, [pc, #124]	; (800050c <TIM6_DAC_IRQHandler+0x13c>)
 8000490:	681b      	ldr	r3, [r3, #0]
 8000492:	3301      	adds	r3, #1
 8000494:	4a1d      	ldr	r2, [pc, #116]	; (800050c <TIM6_DAC_IRQHandler+0x13c>)
 8000496:	6013      	str	r3, [r2, #0]
        s3_state = 0;
 8000498:	4b1d      	ldr	r3, [pc, #116]	; (8000510 <TIM6_DAC_IRQHandler+0x140>)
 800049a:	2200      	movs	r2, #0
 800049c:	701a      	strb	r2, [r3, #0]
 800049e:	e012      	b.n	80004c6 <TIM6_DAC_IRQHandler+0xf6>
      }else{
        s3_state = 1;
 80004a0:	4b1b      	ldr	r3, [pc, #108]	; (8000510 <TIM6_DAC_IRQHandler+0x140>)
 80004a2:	2201      	movs	r2, #1
 80004a4:	701a      	strb	r2, [r3, #0]
        s3_cnt = 0;
 80004a6:	4b19      	ldr	r3, [pc, #100]	; (800050c <TIM6_DAC_IRQHandler+0x13c>)
 80004a8:	2200      	movs	r2, #0
 80004aa:	601a      	str	r2, [r3, #0]
        EXTI->SWIER |= EXTI_SWIER_SWIER12;
 80004ac:	4b14      	ldr	r3, [pc, #80]	; (8000500 <TIM6_DAC_IRQHandler+0x130>)
 80004ae:	691b      	ldr	r3, [r3, #16]
 80004b0:	4a13      	ldr	r2, [pc, #76]	; (8000500 <TIM6_DAC_IRQHandler+0x130>)
 80004b2:	f443 5380 	orr.w	r3, r3, #4096	; 0x1000
 80004b6:	6113      	str	r3, [r2, #16]
 80004b8:	e005      	b.n	80004c6 <TIM6_DAC_IRQHandler+0xf6>
      }
    }else{
      s3_state = 0;
 80004ba:	4b15      	ldr	r3, [pc, #84]	; (8000510 <TIM6_DAC_IRQHandler+0x140>)
 80004bc:	2200      	movs	r2, #0
 80004be:	701a      	strb	r2, [r3, #0]
      s3_cnt = 0;
 80004c0:	4b12      	ldr	r3, [pc, #72]	; (800050c <TIM6_DAC_IRQHandler+0x13c>)
 80004c2:	2200      	movs	r2, #0
 80004c4:	601a      	str	r2, [r3, #0]
    }
    tim2_ticks++;
 80004c6:	4b13      	ldr	r3, [pc, #76]	; (8000514 <TIM6_DAC_IRQHandler+0x144>)
 80004c8:	681b      	ldr	r3, [r3, #0]
 80004ca:	3301      	adds	r3, #1
 80004cc:	4a11      	ldr	r2, [pc, #68]	; (8000514 <TIM6_DAC_IRQHandler+0x144>)
 80004ce:	6013      	str	r3, [r2, #0]
    timer_elapsed++;
 80004d0:	4b11      	ldr	r3, [pc, #68]	; (8000518 <TIM6_DAC_IRQHandler+0x148>)
 80004d2:	681b      	ldr	r3, [r3, #0]
 80004d4:	3301      	adds	r3, #1
 80004d6:	4a10      	ldr	r2, [pc, #64]	; (8000518 <TIM6_DAC_IRQHandler+0x148>)
 80004d8:	6013      	str	r3, [r2, #0]
    NVIC_ClearPendingIRQ(TIM6_DAC_IRQn);
 80004da:	2036      	movs	r0, #54	; 0x36
 80004dc:	f7ff ff38 	bl	8000350 <__NVIC_ClearPendingIRQ>
    TIM6->SR &= ~TIM_SR_UIF;
 80004e0:	4b03      	ldr	r3, [pc, #12]	; (80004f0 <TIM6_DAC_IRQHandler+0x120>)
 80004e2:	691b      	ldr	r3, [r3, #16]
 80004e4:	4a02      	ldr	r2, [pc, #8]	; (80004f0 <TIM6_DAC_IRQHandler+0x120>)
 80004e6:	f023 0301 	bic.w	r3, r3, #1
 80004ea:	6113      	str	r3, [r2, #16]
  }
}
 80004ec:	bf00      	nop
 80004ee:	bd80      	pop	{r7, pc}
 80004f0:	40001000 	.word	0x40001000
 80004f4:	40021000 	.word	0x40021000
 80004f8:	20000024 	.word	0x20000024
 80004fc:	20000020 	.word	0x20000020
 8000500:	40013c00 	.word	0x40013c00
 8000504:	2000002c 	.word	0x2000002c
 8000508:	20000028 	.word	0x20000028
 800050c:	20000034 	.word	0x20000034
 8000510:	20000030 	.word	0x20000030
 8000514:	20000038 	.word	0x20000038
 8000518:	2000003c 	.word	0x2000003c

0800051c <timer_init>:

void timer_init(void){
 800051c:	b580      	push	{r7, lr}
 800051e:	af00      	add	r7, sp, #0
  RCC->APB1ENR |= RCC_APB1ENR_TIM6EN;
 8000520:	4b11      	ldr	r3, [pc, #68]	; (8000568 <timer_init+0x4c>)
 8000522:	6c1b      	ldr	r3, [r3, #64]	; 0x40
 8000524:	4a10      	ldr	r2, [pc, #64]	; (8000568 <timer_init+0x4c>)
 8000526:	f043 0310 	orr.w	r3, r3, #16
 800052a:	6413      	str	r3, [r2, #64]	; 0x40

  TIM6->CR1 &= ~TIM_CR1_CEN;
 800052c:	4b0f      	ldr	r3, [pc, #60]	; (800056c <timer_init+0x50>)
 800052e:	681b      	ldr	r3, [r3, #0]
 8000530:	4a0e      	ldr	r2, [pc, #56]	; (800056c <timer_init+0x50>)
 8000532:	f023 0301 	bic.w	r3, r3, #1
 8000536:	6013      	str	r3, [r2, #0]
  //10 ms = 100Hz
  TIM6->PSC = 7;
 8000538:	4b0c      	ldr	r3, [pc, #48]	; (800056c <timer_init+0x50>)
 800053a:	2207      	movs	r2, #7
 800053c:	629a      	str	r2, [r3, #40]	; 0x28
  TIM6->ARR = 59999;
 800053e:	4b0b      	ldr	r3, [pc, #44]	; (800056c <timer_init+0x50>)
 8000540:	f64e 225f 	movw	r2, #59999	; 0xea5f
 8000544:	62da      	str	r2, [r3, #44]	; 0x2c

  TIM6->DIER |= TIM_DIER_UIE;
 8000546:	4b09      	ldr	r3, [pc, #36]	; (800056c <timer_init+0x50>)
 8000548:	68db      	ldr	r3, [r3, #12]
 800054a:	4a08      	ldr	r2, [pc, #32]	; (800056c <timer_init+0x50>)
 800054c:	f043 0301 	orr.w	r3, r3, #1
 8000550:	60d3      	str	r3, [r2, #12]

  TIM6->CR1 |= TIM_CR1_CEN;
 8000552:	4b06      	ldr	r3, [pc, #24]	; (800056c <timer_init+0x50>)
 8000554:	681b      	ldr	r3, [r3, #0]
 8000556:	4a05      	ldr	r2, [pc, #20]	; (800056c <timer_init+0x50>)
 8000558:	f043 0301 	orr.w	r3, r3, #1
 800055c:	6013      	str	r3, [r2, #0]
  NVIC_EnableIRQ(TIM6_DAC_IRQn);
 800055e:	2036      	movs	r0, #54	; 0x36
 8000560:	f7ff fed8 	bl	8000314 <__NVIC_EnableIRQ>
}
 8000564:	bf00      	nop
 8000566:	bd80      	pop	{r7, pc}
 8000568:	40023800 	.word	0x40023800
 800056c:	40001000 	.word	0x40001000

08000570 <GPIOe_inp_init>:

void GPIOe_inp_init(void){
 8000570:	b480      	push	{r7}
 8000572:	af00      	add	r7, sp, #0
  //GPIOx(E) Input mode |0|0|
  GPIOE->MODER &= ~GPIO_MODER_MODER10;
 8000574:	4b0b      	ldr	r3, [pc, #44]	; (80005a4 <GPIOe_inp_init+0x34>)
 8000576:	681b      	ldr	r3, [r3, #0]
 8000578:	4a0a      	ldr	r2, [pc, #40]	; (80005a4 <GPIOe_inp_init+0x34>)
 800057a:	f423 1340 	bic.w	r3, r3, #3145728	; 0x300000
 800057e:	6013      	str	r3, [r2, #0]
  GPIOE->MODER &= ~GPIO_MODER_MODER11;
 8000580:	4b08      	ldr	r3, [pc, #32]	; (80005a4 <GPIOe_inp_init+0x34>)
 8000582:	681b      	ldr	r3, [r3, #0]
 8000584:	4a07      	ldr	r2, [pc, #28]	; (80005a4 <GPIOe_inp_init+0x34>)
 8000586:	f423 0340 	bic.w	r3, r3, #12582912	; 0xc00000
 800058a:	6013      	str	r3, [r2, #0]
  GPIOE->MODER &= ~GPIO_MODER_MODER12;
 800058c:	4b05      	ldr	r3, [pc, #20]	; (80005a4 <GPIOe_inp_init+0x34>)
 800058e:	681b      	ldr	r3, [r3, #0]
 8000590:	4a04      	ldr	r2, [pc, #16]	; (80005a4 <GPIOe_inp_init+0x34>)
 8000592:	f023 7340 	bic.w	r3, r3, #50331648	; 0x3000000
 8000596:	6013      	str	r3, [r2, #0]
}
 8000598:	bf00      	nop
 800059a:	46bd      	mov	sp, r7
 800059c:	f85d 7b04 	ldr.w	r7, [sp], #4
 80005a0:	4770      	bx	lr
 80005a2:	bf00      	nop
 80005a4:	40021000 	.word	0x40021000

080005a8 <EXTI15_10_IRQHandler>:

void EXTI15_10_IRQHandler(void){
 80005a8:	b580      	push	{r7, lr}
 80005aa:	af00      	add	r7, sp, #0
	RTC_update(&myCalendar);
 80005ac:	483e      	ldr	r0, [pc, #248]	; (80006a8 <EXTI15_10_IRQHandler+0x100>)
 80005ae:	f000 fa4b 	bl	8000a48 <RTC_update>
	//S1 button
	if (s1_state) {
 80005b2:	4b3e      	ldr	r3, [pc, #248]	; (80006ac <EXTI15_10_IRQHandler+0x104>)
 80005b4:	781b      	ldrb	r3, [r3, #0]
 80005b6:	2b00      	cmp	r3, #0
 80005b8:	d020      	beq.n	80005fc <EXTI15_10_IRQHandler+0x54>
		switch (CHECK_OUTPUT_E(LED_1)) {
 80005ba:	4b3d      	ldr	r3, [pc, #244]	; (80006b0 <EXTI15_10_IRQHandler+0x108>)
 80005bc:	695b      	ldr	r3, [r3, #20]
 80005be:	f403 5300 	and.w	r3, r3, #8192	; 0x2000
 80005c2:	2b00      	cmp	r3, #0
 80005c4:	d009      	beq.n	80005da <EXTI15_10_IRQHandler+0x32>
 80005c6:	f5b3 5f00 	cmp.w	r3, #8192	; 0x2000
 80005ca:	d10d      	bne.n	80005e8 <EXTI15_10_IRQHandler+0x40>
		case LED_1:
			LED_13_ON;
 80005cc:	4b38      	ldr	r3, [pc, #224]	; (80006b0 <EXTI15_10_IRQHandler+0x108>)
 80005ce:	699b      	ldr	r3, [r3, #24]
 80005d0:	4a37      	ldr	r2, [pc, #220]	; (80006b0 <EXTI15_10_IRQHandler+0x108>)
 80005d2:	f043 5300 	orr.w	r3, r3, #536870912	; 0x20000000
 80005d6:	6193      	str	r3, [r2, #24]
			break;
 80005d8:	e00d      	b.n	80005f6 <EXTI15_10_IRQHandler+0x4e>
		case !LED_1:
			LED_13_OFF;
 80005da:	4b35      	ldr	r3, [pc, #212]	; (80006b0 <EXTI15_10_IRQHandler+0x108>)
 80005dc:	699b      	ldr	r3, [r3, #24]
 80005de:	4a34      	ldr	r2, [pc, #208]	; (80006b0 <EXTI15_10_IRQHandler+0x108>)
 80005e0:	f443 5300 	orr.w	r3, r3, #8192	; 0x2000
 80005e4:	6193      	str	r3, [r2, #24]
			break;
 80005e6:	e006      	b.n	80005f6 <EXTI15_10_IRQHandler+0x4e>
		default:
			LED_13_OFF;
 80005e8:	4b31      	ldr	r3, [pc, #196]	; (80006b0 <EXTI15_10_IRQHandler+0x108>)
 80005ea:	699b      	ldr	r3, [r3, #24]
 80005ec:	4a30      	ldr	r2, [pc, #192]	; (80006b0 <EXTI15_10_IRQHandler+0x108>)
 80005ee:	f443 5300 	orr.w	r3, r3, #8192	; 0x2000
 80005f2:	6193      	str	r3, [r2, #24]
			break;
 80005f4:	bf00      	nop
		}
		s1_state = 0;
 80005f6:	4b2d      	ldr	r3, [pc, #180]	; (80006ac <EXTI15_10_IRQHandler+0x104>)
 80005f8:	2200      	movs	r2, #0
 80005fa:	701a      	strb	r2, [r3, #0]
	}

	//S2 button
	if (s2_state) {
 80005fc:	4b2d      	ldr	r3, [pc, #180]	; (80006b4 <EXTI15_10_IRQHandler+0x10c>)
 80005fe:	781b      	ldrb	r3, [r3, #0]
 8000600:	2b00      	cmp	r3, #0
 8000602:	d017      	beq.n	8000634 <EXTI15_10_IRQHandler+0x8c>
		switch (CHECK_OUTPUT_E(LED_2)) {
 8000604:	4b2a      	ldr	r3, [pc, #168]	; (80006b0 <EXTI15_10_IRQHandler+0x108>)
 8000606:	695b      	ldr	r3, [r3, #20]
 8000608:	f403 4380 	and.w	r3, r3, #16384	; 0x4000
 800060c:	f5b3 4f80 	cmp.w	r3, #16384	; 0x4000
 8000610:	d106      	bne.n	8000620 <EXTI15_10_IRQHandler+0x78>
		case LED_2:
			LED_14_ON;
 8000612:	4b27      	ldr	r3, [pc, #156]	; (80006b0 <EXTI15_10_IRQHandler+0x108>)
 8000614:	699b      	ldr	r3, [r3, #24]
 8000616:	4a26      	ldr	r2, [pc, #152]	; (80006b0 <EXTI15_10_IRQHandler+0x108>)
 8000618:	f043 4380 	orr.w	r3, r3, #1073741824	; 0x40000000
 800061c:	6193      	str	r3, [r2, #24]
			break;
 800061e:	e006      	b.n	800062e <EXTI15_10_IRQHandler+0x86>
		default:
			LED_14_OFF;
 8000620:	4b23      	ldr	r3, [pc, #140]	; (80006b0 <EXTI15_10_IRQHandler+0x108>)
 8000622:	699b      	ldr	r3, [r3, #24]
 8000624:	4a22      	ldr	r2, [pc, #136]	; (80006b0 <EXTI15_10_IRQHandler+0x108>)
 8000626:	f443 4380 	orr.w	r3, r3, #16384	; 0x4000
 800062a:	6193      	str	r3, [r2, #24]
			break;
 800062c:	bf00      	nop
		}
		s2_state = 0;
 800062e:	4b21      	ldr	r3, [pc, #132]	; (80006b4 <EXTI15_10_IRQHandler+0x10c>)
 8000630:	2200      	movs	r2, #0
 8000632:	701a      	strb	r2, [r3, #0]
	}

	//S3 button
	if (s3_state) {
 8000634:	4b20      	ldr	r3, [pc, #128]	; (80006b8 <EXTI15_10_IRQHandler+0x110>)
 8000636:	781b      	ldrb	r3, [r3, #0]
 8000638:	2b00      	cmp	r3, #0
 800063a:	d020      	beq.n	800067e <EXTI15_10_IRQHandler+0xd6>
		switch (CHECK_OUTPUT_E(LED_3)) {
 800063c:	4b1c      	ldr	r3, [pc, #112]	; (80006b0 <EXTI15_10_IRQHandler+0x108>)
 800063e:	695b      	ldr	r3, [r3, #20]
 8000640:	f403 4300 	and.w	r3, r3, #32768	; 0x8000
 8000644:	2b00      	cmp	r3, #0
 8000646:	d009      	beq.n	800065c <EXTI15_10_IRQHandler+0xb4>
 8000648:	f5b3 4f00 	cmp.w	r3, #32768	; 0x8000
 800064c:	d10d      	bne.n	800066a <EXTI15_10_IRQHandler+0xc2>
		case LED_3:
			LED_15_ON;
 800064e:	4b18      	ldr	r3, [pc, #96]	; (80006b0 <EXTI15_10_IRQHandler+0x108>)
 8000650:	699b      	ldr	r3, [r3, #24]
 8000652:	4a17      	ldr	r2, [pc, #92]	; (80006b0 <EXTI15_10_IRQHandler+0x108>)
 8000654:	f043 4300 	orr.w	r3, r3, #2147483648	; 0x80000000
 8000658:	6193      	str	r3, [r2, #24]
			break;
 800065a:	e00d      	b.n	8000678 <EXTI15_10_IRQHandler+0xd0>
		case !LED_3:
			LED_15_OFF;
 800065c:	4b14      	ldr	r3, [pc, #80]	; (80006b0 <EXTI15_10_IRQHandler+0x108>)
 800065e:	699b      	ldr	r3, [r3, #24]
 8000660:	4a13      	ldr	r2, [pc, #76]	; (80006b0 <EXTI15_10_IRQHandler+0x108>)
 8000662:	f443 4300 	orr.w	r3, r3, #32768	; 0x8000
 8000666:	6193      	str	r3, [r2, #24]
			break;
 8000668:	e006      	b.n	8000678 <EXTI15_10_IRQHandler+0xd0>
		default:
			LED_15_OFF;
 800066a:	4b11      	ldr	r3, [pc, #68]	; (80006b0 <EXTI15_10_IRQHandler+0x108>)
 800066c:	699b      	ldr	r3, [r3, #24]
 800066e:	4a10      	ldr	r2, [pc, #64]	; (80006b0 <EXTI15_10_IRQHandler+0x108>)
 8000670:	f443 4300 	orr.w	r3, r3, #32768	; 0x8000
 8000674:	6193      	str	r3, [r2, #24]
			break;
 8000676:	bf00      	nop
		}
		s3_state = 0;
 8000678:	4b0f      	ldr	r3, [pc, #60]	; (80006b8 <EXTI15_10_IRQHandler+0x110>)
 800067a:	2200      	movs	r2, #0
 800067c:	701a      	strb	r2, [r3, #0]
	}
	EXTI->PR |= EXTI_PR_PR10;
 800067e:	4b0f      	ldr	r3, [pc, #60]	; (80006bc <EXTI15_10_IRQHandler+0x114>)
 8000680:	695b      	ldr	r3, [r3, #20]
 8000682:	4a0e      	ldr	r2, [pc, #56]	; (80006bc <EXTI15_10_IRQHandler+0x114>)
 8000684:	f443 6380 	orr.w	r3, r3, #1024	; 0x400
 8000688:	6153      	str	r3, [r2, #20]
	EXTI->PR |= EXTI_PR_PR11;
 800068a:	4b0c      	ldr	r3, [pc, #48]	; (80006bc <EXTI15_10_IRQHandler+0x114>)
 800068c:	695b      	ldr	r3, [r3, #20]
 800068e:	4a0b      	ldr	r2, [pc, #44]	; (80006bc <EXTI15_10_IRQHandler+0x114>)
 8000690:	f443 6300 	orr.w	r3, r3, #2048	; 0x800
 8000694:	6153      	str	r3, [r2, #20]
	EXTI->PR |= EXTI_PR_PR12;
 8000696:	4b09      	ldr	r3, [pc, #36]	; (80006bc <EXTI15_10_IRQHandler+0x114>)
 8000698:	695b      	ldr	r3, [r3, #20]
 800069a:	4a08      	ldr	r2, [pc, #32]	; (80006bc <EXTI15_10_IRQHandler+0x114>)
 800069c:	f443 5380 	orr.w	r3, r3, #4096	; 0x1000
 80006a0:	6153      	str	r3, [r2, #20]
}
 80006a2:	bf00      	nop
 80006a4:	bd80      	pop	{r7, pc}
 80006a6:	bf00      	nop
 80006a8:	20000040 	.word	0x20000040
 80006ac:	20000020 	.word	0x20000020
 80006b0:	40021000 	.word	0x40021000
 80006b4:	20000028 	.word	0x20000028
 80006b8:	20000030 	.word	0x20000030
 80006bc:	40013c00 	.word	0x40013c00

080006c0 <enter_lpm>:

	NVIC_EnableIRQ(EXTI15_10_IRQn);

}

void enter_lpm(void){
 80006c0:	b480      	push	{r7}
 80006c2:	b083      	sub	sp, #12
 80006c4:	af00      	add	r7, sp, #0
	uint32_t scr = 0;
 80006c6:	2300      	movs	r3, #0
 80006c8:	607b      	str	r3, [r7, #4]
	LED_13_OFF;
 80006ca:	4b19      	ldr	r3, [pc, #100]	; (8000730 <enter_lpm+0x70>)
 80006cc:	699b      	ldr	r3, [r3, #24]
 80006ce:	4a18      	ldr	r2, [pc, #96]	; (8000730 <enter_lpm+0x70>)
 80006d0:	f443 5300 	orr.w	r3, r3, #8192	; 0x2000
 80006d4:	6193      	str	r3, [r2, #24]
	LED_14_OFF;
 80006d6:	4b16      	ldr	r3, [pc, #88]	; (8000730 <enter_lpm+0x70>)
 80006d8:	699b      	ldr	r3, [r3, #24]
 80006da:	4a15      	ldr	r2, [pc, #84]	; (8000730 <enter_lpm+0x70>)
 80006dc:	f443 4380 	orr.w	r3, r3, #16384	; 0x4000
 80006e0:	6193      	str	r3, [r2, #24]
	LED_15_OFF;
 80006e2:	4b13      	ldr	r3, [pc, #76]	; (8000730 <enter_lpm+0x70>)
 80006e4:	699b      	ldr	r3, [r3, #24]
 80006e6:	4a12      	ldr	r2, [pc, #72]	; (8000730 <enter_lpm+0x70>)
 80006e8:	f443 4300 	orr.w	r3, r3, #32768	; 0x8000
 80006ec:	6193      	str	r3, [r2, #24]
	scr = SCB->SCR;
 80006ee:	4b11      	ldr	r3, [pc, #68]	; (8000734 <enter_lpm+0x74>)
 80006f0:	691b      	ldr	r3, [r3, #16]
 80006f2:	607b      	str	r3, [r7, #4]
	scr &= ~SCB_SCR_SEVONPEND_Msk;
 80006f4:	687b      	ldr	r3, [r7, #4]
 80006f6:	f023 0310 	bic.w	r3, r3, #16
 80006fa:	607b      	str	r3, [r7, #4]
	scr |= SCB_SCR_SLEEPDEEP_Msk;
 80006fc:	687b      	ldr	r3, [r7, #4]
 80006fe:	f043 0304 	orr.w	r3, r3, #4
 8000702:	607b      	str	r3, [r7, #4]
	scr &= ~SCB_SCR_SLEEPONEXIT_Msk;
 8000704:	687b      	ldr	r3, [r7, #4]
 8000706:	f023 0302 	bic.w	r3, r3, #2
 800070a:	607b      	str	r3, [r7, #4]
	SCB->SCR = scr;
 800070c:	4a09      	ldr	r2, [pc, #36]	; (8000734 <enter_lpm+0x74>)
 800070e:	687b      	ldr	r3, [r7, #4]
 8000710:	6113      	str	r3, [r2, #16]
	PWR->CR |= (PWR_CR_CWUF | PWR_CR_FPDS | PWR_CR_LPDS);
 8000712:	4b09      	ldr	r3, [pc, #36]	; (8000738 <enter_lpm+0x78>)
 8000714:	681b      	ldr	r3, [r3, #0]
 8000716:	4a08      	ldr	r2, [pc, #32]	; (8000738 <enter_lpm+0x78>)
 8000718:	f443 7301 	orr.w	r3, r3, #516	; 0x204
 800071c:	f043 0301 	orr.w	r3, r3, #1
 8000720:	6013      	str	r3, [r2, #0]
}
 8000722:	bf00      	nop
 8000724:	370c      	adds	r7, #12
 8000726:	46bd      	mov	sp, r7
 8000728:	f85d 7b04 	ldr.w	r7, [sp], #4
 800072c:	4770      	bx	lr
 800072e:	bf00      	nop
 8000730:	40021000 	.word	0x40021000
 8000734:	e000ed00 	.word	0xe000ed00
 8000738:	40007000 	.word	0x40007000

0800073c <main>:
	system_clock_168m_25m_hse();
	GPIO_RCC_init();
	LED_15_ON;
}
/************************************************************************MAIN*/
int main(void) {
 800073c:	b580      	push	{r7, lr}
 800073e:	b082      	sub	sp, #8
 8000740:	af00      	add	r7, sp, #0
	int sleep = 0;
 8000742:	2300      	movs	r3, #0
 8000744:	607b      	str	r3, [r7, #4]
    system_clock_168m_25m_hse();
 8000746:	f000 f841 	bl	80007cc <system_clock_168m_25m_hse>
    GPIO_RCC_init();
 800074a:	f7ff fe1f 	bl	800038c <GPIO_RCC_init>
//    setbuf(stdout, NULL);
//    SPI_init();
//    usart1_init();
//    usart2_init();
//    w5500_init();
    GPIOe_out_init();
 800074e:	f000 fc45 	bl	8000fdc <GPIOe_out_init>
    GPIOe_inp_init();
 8000752:	f7ff ff0d 	bl	8000570 <GPIOe_inp_init>
//    IRQ_enable();
    timer_init();
 8000756:	f7ff fee1 	bl	800051c <timer_init>
    RTC_init();
 800075a:	f000 f8db 	bl	8000914 <RTC_init>
//    my_sem = xSemaphoreCreateMutex();
//    xTaskCreate(vTaskCheckCable, "vTaskCheckCable", configMINIMAL_STACK_SIZE, NULL, 3, NULL);
//
//	vTaskStartScheduler();
	while (1){
		if(timer_elapsed > 100){
 800075e:	4b18      	ldr	r3, [pc, #96]	; (80007c0 <main+0x84>)
 8000760:	681b      	ldr	r3, [r3, #0]
 8000762:	2b64      	cmp	r3, #100	; 0x64
 8000764:	d915      	bls.n	8000792 <main+0x56>
			__WFE();
 8000766:	bf20      	wfe
			LED_13_OFF;
 8000768:	4b16      	ldr	r3, [pc, #88]	; (80007c4 <main+0x88>)
 800076a:	699b      	ldr	r3, [r3, #24]
 800076c:	4a15      	ldr	r2, [pc, #84]	; (80007c4 <main+0x88>)
 800076e:	f443 5300 	orr.w	r3, r3, #8192	; 0x2000
 8000772:	6193      	str	r3, [r2, #24]
			LED_14_OFF;
 8000774:	4b13      	ldr	r3, [pc, #76]	; (80007c4 <main+0x88>)
 8000776:	699b      	ldr	r3, [r3, #24]
 8000778:	4a12      	ldr	r2, [pc, #72]	; (80007c4 <main+0x88>)
 800077a:	f443 4380 	orr.w	r3, r3, #16384	; 0x4000
 800077e:	6193      	str	r3, [r2, #24]
			LED_15_OFF;
 8000780:	4b10      	ldr	r3, [pc, #64]	; (80007c4 <main+0x88>)
 8000782:	699b      	ldr	r3, [r3, #24]
 8000784:	4a0f      	ldr	r2, [pc, #60]	; (80007c4 <main+0x88>)
 8000786:	f443 4300 	orr.w	r3, r3, #32768	; 0x8000
 800078a:	6193      	str	r3, [r2, #24]
			timer_elapsed = 0;
 800078c:	4b0c      	ldr	r3, [pc, #48]	; (80007c0 <main+0x84>)
 800078e:	2200      	movs	r2, #0
 8000790:	601a      	str	r2, [r3, #0]
		}
		if(tim2_ticks > 1000){
 8000792:	4b0d      	ldr	r3, [pc, #52]	; (80007c8 <main+0x8c>)
 8000794:	681b      	ldr	r3, [r3, #0]
 8000796:	f5b3 7f7a 	cmp.w	r3, #1000	; 0x3e8
 800079a:	d904      	bls.n	80007a6 <main+0x6a>
			sleep = 1;
 800079c:	2301      	movs	r3, #1
 800079e:	607b      	str	r3, [r7, #4]
			tim2_ticks = 0;
 80007a0:	4b09      	ldr	r3, [pc, #36]	; (80007c8 <main+0x8c>)
 80007a2:	2200      	movs	r2, #0
 80007a4:	601a      	str	r2, [r3, #0]
		}
		if(sleep){
 80007a6:	687b      	ldr	r3, [r7, #4]
 80007a8:	2b00      	cmp	r3, #0
 80007aa:	d006      	beq.n	80007ba <main+0x7e>
			enter_lpm();
 80007ac:	f7ff ff88 	bl	80006c0 <enter_lpm>
			RTC_start();
 80007b0:	f000 f922 	bl	80009f8 <RTC_start>
//			WFE();
			sleep = 0;
 80007b4:	2300      	movs	r3, #0
 80007b6:	607b      	str	r3, [r7, #4]
 80007b8:	e7d1      	b.n	800075e <main+0x22>
//			exit_lpm();
		}else{
			__WFI();
 80007ba:	bf30      	wfi
		if(timer_elapsed > 100){
 80007bc:	e7cf      	b.n	800075e <main+0x22>
 80007be:	bf00      	nop
 80007c0:	2000003c 	.word	0x2000003c
 80007c4:	40021000 	.word	0x40021000
 80007c8:	20000038 	.word	0x20000038

080007cc <system_clock_168m_25m_hse>:
#include "stm32f4xx.h"

void system_clock_168m_25m_hse(void)
{
 80007cc:	b580      	push	{r7, lr}
 80007ce:	b086      	sub	sp, #24
 80007d0:	af00      	add	r7, sp, #0
    uint32_t timeout = 0U;
 80007d2:	2300      	movs	r3, #0
 80007d4:	617b      	str	r3, [r7, #20]
    uint32_t stab_flag = 0U;
 80007d6:	2300      	movs	r3, #0
 80007d8:	613b      	str	r3, [r7, #16]
    
    /* enable HSE */
    SET_BIT(RCC->CR, RCC_CR_HSEON);
 80007da:	4b3b      	ldr	r3, [pc, #236]	; (80008c8 <system_clock_168m_25m_hse+0xfc>)
 80007dc:	681b      	ldr	r3, [r3, #0]
 80007de:	4a3a      	ldr	r2, [pc, #232]	; (80008c8 <system_clock_168m_25m_hse+0xfc>)
 80007e0:	f443 3380 	orr.w	r3, r3, #65536	; 0x10000
 80007e4:	6013      	str	r3, [r2, #0]

    /* wait until HSE is stable or the startup time is longer than HXTAL_STARTUP_TIMEOUT */
    do{
        timeout++;
 80007e6:	697b      	ldr	r3, [r7, #20]
 80007e8:	3301      	adds	r3, #1
 80007ea:	617b      	str	r3, [r7, #20]
        stab_flag = READ_BIT(RCC->CR, RCC_CR_HSERDY);
 80007ec:	4b36      	ldr	r3, [pc, #216]	; (80008c8 <system_clock_168m_25m_hse+0xfc>)
 80007ee:	681b      	ldr	r3, [r3, #0]
 80007f0:	f403 3300 	and.w	r3, r3, #131072	; 0x20000
 80007f4:	613b      	str	r3, [r7, #16]
    }while((0U == stab_flag) && (0xFFFF != timeout));
 80007f6:	693b      	ldr	r3, [r7, #16]
 80007f8:	2b00      	cmp	r3, #0
 80007fa:	d104      	bne.n	8000806 <system_clock_168m_25m_hse+0x3a>
 80007fc:	697b      	ldr	r3, [r7, #20]
 80007fe:	f64f 72ff 	movw	r2, #65535	; 0xffff
 8000802:	4293      	cmp	r3, r2
 8000804:	d1ef      	bne.n	80007e6 <system_clock_168m_25m_hse+0x1a>

    /* if fail */
    if(0U == READ_BIT(RCC->CR, RCC_CR_HSERDY)){
 8000806:	4b30      	ldr	r3, [pc, #192]	; (80008c8 <system_clock_168m_25m_hse+0xfc>)
 8000808:	681b      	ldr	r3, [r3, #0]
 800080a:	f403 3300 	and.w	r3, r3, #131072	; 0x20000
 800080e:	2b00      	cmp	r3, #0
 8000810:	d100      	bne.n	8000814 <system_clock_168m_25m_hse+0x48>
        while(1){
 8000812:	e7fe      	b.n	8000812 <system_clock_168m_25m_hse+0x46>
        }
    }
    
    /* Flash access (read RM0090) */
    FLASH->ACR |= FLASH_ACR_LATENCY_5WS | FLASH_ACR_PRFTEN | FLASH_ACR_ICEN | FLASH_ACR_DCEN;
 8000814:	4b2d      	ldr	r3, [pc, #180]	; (80008cc <system_clock_168m_25m_hse+0x100>)
 8000816:	681b      	ldr	r3, [r3, #0]
 8000818:	4a2c      	ldr	r2, [pc, #176]	; (80008cc <system_clock_168m_25m_hse+0x100>)
 800081a:	f443 63e0 	orr.w	r3, r3, #1792	; 0x700
 800081e:	f043 0305 	orr.w	r3, r3, #5
 8000822:	6013      	str	r3, [r2, #0]

    /* Enable APB1 */
    SET_BIT(RCC->APB1ENR, RCC_APB1ENR_PWREN);
 8000824:	4b28      	ldr	r3, [pc, #160]	; (80008c8 <system_clock_168m_25m_hse+0xfc>)
 8000826:	6c1b      	ldr	r3, [r3, #64]	; 0x40
 8000828:	4a27      	ldr	r2, [pc, #156]	; (80008c8 <system_clock_168m_25m_hse+0xfc>)
 800082a:	f043 5380 	orr.w	r3, r3, #268435456	; 0x10000000
 800082e:	6413      	str	r3, [r2, #64]	; 0x40
    SET_BIT(PWR->CR, PWR_CR_VOS);
 8000830:	4b27      	ldr	r3, [pc, #156]	; (80008d0 <system_clock_168m_25m_hse+0x104>)
 8000832:	681b      	ldr	r3, [r3, #0]
 8000834:	4a26      	ldr	r2, [pc, #152]	; (80008d0 <system_clock_168m_25m_hse+0x104>)
 8000836:	f443 4380 	orr.w	r3, r3, #16384	; 0x4000
 800083a:	6013      	str	r3, [r2, #0]

    /* HSE is stable */
    /* AHB = SYSCLK = 168 MHz */
    /* APB2 = AHB/2 = 84 MHz */
    /* APB1 = AHB/4 = 42 MHz */
    SET_BIT(RCC->CFGR, RCC_CFGR_HPRE_DIV1 | RCC_CFGR_PPRE2_DIV2 | RCC_CFGR_PPRE1_DIV4);
 800083c:	4b22      	ldr	r3, [pc, #136]	; (80008c8 <system_clock_168m_25m_hse+0xfc>)
 800083e:	689b      	ldr	r3, [r3, #8]
 8000840:	4a21      	ldr	r2, [pc, #132]	; (80008c8 <system_clock_168m_25m_hse+0xfc>)
 8000842:	f443 4314 	orr.w	r3, r3, #37888	; 0x9400
 8000846:	6093      	str	r3, [r2, #8]

    /* Configure the main PLL, PSC = 25, PLL_N = 336, PLL_P = 2 (set to PLLP = 00), PLL_Q = 7 */ 
    uint32_t PLLM = 25 << RCC_PLLCFGR_PLLM_Pos;
 8000848:	2319      	movs	r3, #25
 800084a:	60fb      	str	r3, [r7, #12]
    uint32_t PLLN = 336 << RCC_PLLCFGR_PLLN_Pos;
 800084c:	f44f 43a8 	mov.w	r3, #21504	; 0x5400
 8000850:	60bb      	str	r3, [r7, #8]
    uint32_t PLLP = 0 << RCC_PLLCFGR_PLLP_Pos;
 8000852:	2300      	movs	r3, #0
 8000854:	607b      	str	r3, [r7, #4]
    uint32_t PLLQ = 7 << RCC_PLLCFGR_PLLQ_Pos;
 8000856:	f04f 63e0 	mov.w	r3, #117440512	; 0x7000000
 800085a:	603b      	str	r3, [r7, #0]
    SET_BIT(RCC->PLLCFGR, RCC_PLLCFGR_PLLSRC_HSE);
 800085c:	4b1a      	ldr	r3, [pc, #104]	; (80008c8 <system_clock_168m_25m_hse+0xfc>)
 800085e:	685b      	ldr	r3, [r3, #4]
 8000860:	4a19      	ldr	r2, [pc, #100]	; (80008c8 <system_clock_168m_25m_hse+0xfc>)
 8000862:	f443 0380 	orr.w	r3, r3, #4194304	; 0x400000
 8000866:	6053      	str	r3, [r2, #4]
    MODIFY_REG(RCC->PLLCFGR,
 8000868:	4b17      	ldr	r3, [pc, #92]	; (80008c8 <system_clock_168m_25m_hse+0xfc>)
 800086a:	685a      	ldr	r2, [r3, #4]
 800086c:	4b19      	ldr	r3, [pc, #100]	; (80008d4 <system_clock_168m_25m_hse+0x108>)
 800086e:	4013      	ands	r3, r2
 8000870:	68f9      	ldr	r1, [r7, #12]
 8000872:	68ba      	ldr	r2, [r7, #8]
 8000874:	4311      	orrs	r1, r2
 8000876:	687a      	ldr	r2, [r7, #4]
 8000878:	4311      	orrs	r1, r2
 800087a:	683a      	ldr	r2, [r7, #0]
 800087c:	430a      	orrs	r2, r1
 800087e:	4912      	ldr	r1, [pc, #72]	; (80008c8 <system_clock_168m_25m_hse+0xfc>)
 8000880:	4313      	orrs	r3, r2
 8000882:	604b      	str	r3, [r1, #4]
               RCC_PLLCFGR_PLLM_Msk | RCC_PLLCFGR_PLLN_Msk | RCC_PLLCFGR_PLLP_Msk | RCC_PLLCFGR_PLLQ_Msk,
               PLLM | PLLN | PLLP | PLLQ);
    
    /* enable PLL */
    SET_BIT(RCC->CR, RCC_CR_PLLON);
 8000884:	4b10      	ldr	r3, [pc, #64]	; (80008c8 <system_clock_168m_25m_hse+0xfc>)
 8000886:	681b      	ldr	r3, [r3, #0]
 8000888:	4a0f      	ldr	r2, [pc, #60]	; (80008c8 <system_clock_168m_25m_hse+0xfc>)
 800088a:	f043 7380 	orr.w	r3, r3, #16777216	; 0x1000000
 800088e:	6013      	str	r3, [r2, #0]

    /* wait until PLL is stable */
    while(0U == READ_BIT(RCC->CR, RCC_CR_PLLRDY)){
 8000890:	bf00      	nop
 8000892:	4b0d      	ldr	r3, [pc, #52]	; (80008c8 <system_clock_168m_25m_hse+0xfc>)
 8000894:	681b      	ldr	r3, [r3, #0]
 8000896:	f003 7300 	and.w	r3, r3, #33554432	; 0x2000000
 800089a:	2b00      	cmp	r3, #0
 800089c:	d0f9      	beq.n	8000892 <system_clock_168m_25m_hse+0xc6>
    }
    
    /* select PLL as system clock */
    MODIFY_REG(RCC->CFGR, RCC_CFGR_SW_Msk, RCC_CFGR_SW_PLL);
 800089e:	4b0a      	ldr	r3, [pc, #40]	; (80008c8 <system_clock_168m_25m_hse+0xfc>)
 80008a0:	689b      	ldr	r3, [r3, #8]
 80008a2:	f023 0303 	bic.w	r3, r3, #3
 80008a6:	4a08      	ldr	r2, [pc, #32]	; (80008c8 <system_clock_168m_25m_hse+0xfc>)
 80008a8:	f043 0302 	orr.w	r3, r3, #2
 80008ac:	6093      	str	r3, [r2, #8]
    
    /* wait until PLL is selected as system clock */
    while(RCC_CFGR_SWS_PLL != (RCC->CFGR & RCC_CFGR_SWS_Msk) ){
 80008ae:	bf00      	nop
 80008b0:	4b05      	ldr	r3, [pc, #20]	; (80008c8 <system_clock_168m_25m_hse+0xfc>)
 80008b2:	689b      	ldr	r3, [r3, #8]
 80008b4:	f003 030c 	and.w	r3, r3, #12
 80008b8:	2b08      	cmp	r3, #8
 80008ba:	d1f9      	bne.n	80008b0 <system_clock_168m_25m_hse+0xe4>
    }

    SystemCoreClockUpdate();
 80008bc:	f7ff fcaa 	bl	8000214 <SystemCoreClockUpdate>
 80008c0:	bf00      	nop
 80008c2:	3718      	adds	r7, #24
 80008c4:	46bd      	mov	sp, r7
 80008c6:	bd80      	pop	{r7, pc}
 80008c8:	40023800 	.word	0x40023800
 80008cc:	40023c00 	.word	0x40023c00
 80008d0:	40007000 	.word	0x40007000
 80008d4:	f0fc8000 	.word	0xf0fc8000

080008d8 <__NVIC_EnableIRQ>:
{
 80008d8:	b480      	push	{r7}
 80008da:	b083      	sub	sp, #12
 80008dc:	af00      	add	r7, sp, #0
 80008de:	4603      	mov	r3, r0
 80008e0:	71fb      	strb	r3, [r7, #7]
  if ((int32_t)(IRQn) >= 0)
 80008e2:	f997 3007 	ldrsb.w	r3, [r7, #7]
 80008e6:	2b00      	cmp	r3, #0
 80008e8:	db0b      	blt.n	8000902 <__NVIC_EnableIRQ+0x2a>
    NVIC->ISER[(((uint32_t)IRQn) >> 5UL)] = (uint32_t)(1UL << (((uint32_t)IRQn) & 0x1FUL));
 80008ea:	79fb      	ldrb	r3, [r7, #7]
 80008ec:	f003 021f 	and.w	r2, r3, #31
 80008f0:	4907      	ldr	r1, [pc, #28]	; (8000910 <__NVIC_EnableIRQ+0x38>)
 80008f2:	f997 3007 	ldrsb.w	r3, [r7, #7]
 80008f6:	095b      	lsrs	r3, r3, #5
 80008f8:	2001      	movs	r0, #1
 80008fa:	fa00 f202 	lsl.w	r2, r0, r2
 80008fe:	f841 2023 	str.w	r2, [r1, r3, lsl #2]
}
 8000902:	bf00      	nop
 8000904:	370c      	adds	r7, #12
 8000906:	46bd      	mov	sp, r7
 8000908:	f85d 7b04 	ldr.w	r7, [sp], #4
 800090c:	4770      	bx	lr
 800090e:	bf00      	nop
 8000910:	e000e100 	.word	0xe000e100

08000914 <RTC_init>:
#include "rtc.h"

rtcCalendar myCalendar;
/* Initialization of RTC for LSE = 32.768 kHz */
void RTC_init(void) {
 8000914:	b580      	push	{r7, lr}
 8000916:	af00      	add	r7, sp, #0
	/* Enable PWR module clocking */
	SET_BIT(RCC->APB1ENR, RCC_APB1ENR_PWREN);
 8000918:	4b33      	ldr	r3, [pc, #204]	; (80009e8 <RTC_init+0xd4>)
 800091a:	6c1b      	ldr	r3, [r3, #64]	; 0x40
 800091c:	4a32      	ldr	r2, [pc, #200]	; (80009e8 <RTC_init+0xd4>)
 800091e:	f043 5380 	orr.w	r3, r3, #268435456	; 0x10000000
 8000922:	6413      	str	r3, [r2, #64]	; 0x40
	/* Disable backup domain write protection */
	SET_BIT(PWR->CR, PWR_CR_DBP);
 8000924:	4b31      	ldr	r3, [pc, #196]	; (80009ec <RTC_init+0xd8>)
 8000926:	681b      	ldr	r3, [r3, #0]
 8000928:	4a30      	ldr	r2, [pc, #192]	; (80009ec <RTC_init+0xd8>)
 800092a:	f443 7380 	orr.w	r3, r3, #256	; 0x100
 800092e:	6013      	str	r3, [r2, #0]

	/* Enable LSE */
	SET_BIT(RCC->BDCR, RCC_BDCR_LSEON);
 8000930:	4b2d      	ldr	r3, [pc, #180]	; (80009e8 <RTC_init+0xd4>)
 8000932:	6f1b      	ldr	r3, [r3, #112]	; 0x70
 8000934:	4a2c      	ldr	r2, [pc, #176]	; (80009e8 <RTC_init+0xd4>)
 8000936:	f043 0301 	orr.w	r3, r3, #1
 800093a:	6713      	str	r3, [r2, #112]	; 0x70
	while (!(RCC->BDCR & RCC_BDCR_LSERDY)) {
 800093c:	bf00      	nop
 800093e:	4b2a      	ldr	r3, [pc, #168]	; (80009e8 <RTC_init+0xd4>)
 8000940:	6f1b      	ldr	r3, [r3, #112]	; 0x70
 8000942:	f003 0302 	and.w	r3, r3, #2
 8000946:	2b00      	cmp	r3, #0
 8000948:	d0f9      	beq.n	800093e <RTC_init+0x2a>
	};

	/* Select RTC clocking to LSE: RTCSEL = 01*/
	SET_BIT(RCC->BDCR, RCC_BDCR_RTCSEL_0);
 800094a:	4b27      	ldr	r3, [pc, #156]	; (80009e8 <RTC_init+0xd4>)
 800094c:	6f1b      	ldr	r3, [r3, #112]	; 0x70
 800094e:	4a26      	ldr	r2, [pc, #152]	; (80009e8 <RTC_init+0xd4>)
 8000950:	f443 7380 	orr.w	r3, r3, #256	; 0x100
 8000954:	6713      	str	r3, [r2, #112]	; 0x70
	/* Enable RTC */
	SET_BIT(RCC->BDCR, RCC_BDCR_RTCEN);
 8000956:	4b24      	ldr	r3, [pc, #144]	; (80009e8 <RTC_init+0xd4>)
 8000958:	6f1b      	ldr	r3, [r3, #112]	; 0x70
 800095a:	4a23      	ldr	r2, [pc, #140]	; (80009e8 <RTC_init+0xd4>)
 800095c:	f443 4300 	orr.w	r3, r3, #32768	; 0x8000
 8000960:	6713      	str	r3, [r2, #112]	; 0x70

//	RCC->APB2ENR |= RCC_APB2ENR_SYSCFGEN;
//	SYSCFG->EXTICR[2] |= SYSCFG_EXTICR3_EXTI10_PE;
	EXTI->IMR |= EXTI_IMR_MR22;
 8000962:	4b23      	ldr	r3, [pc, #140]	; (80009f0 <RTC_init+0xdc>)
 8000964:	681b      	ldr	r3, [r3, #0]
 8000966:	4a22      	ldr	r2, [pc, #136]	; (80009f0 <RTC_init+0xdc>)
 8000968:	f443 0380 	orr.w	r3, r3, #4194304	; 0x400000
 800096c:	6013      	str	r3, [r2, #0]
	EXTI->EMR |= EXTI_EMR_MR22;
 800096e:	4b20      	ldr	r3, [pc, #128]	; (80009f0 <RTC_init+0xdc>)
 8000970:	685b      	ldr	r3, [r3, #4]
 8000972:	4a1f      	ldr	r2, [pc, #124]	; (80009f0 <RTC_init+0xdc>)
 8000974:	f443 0380 	orr.w	r3, r3, #4194304	; 0x400000
 8000978:	6053      	str	r3, [r2, #4]
	EXTI->RTSR |= EXTI_RTSR_TR22;
 800097a:	4b1d      	ldr	r3, [pc, #116]	; (80009f0 <RTC_init+0xdc>)
 800097c:	689b      	ldr	r3, [r3, #8]
 800097e:	4a1c      	ldr	r2, [pc, #112]	; (80009f0 <RTC_init+0xdc>)
 8000980:	f443 0380 	orr.w	r3, r3, #4194304	; 0x400000
 8000984:	6093      	str	r3, [r2, #8]
	EXTI->PR |= EXTI_PR_PR2;
 8000986:	4b1a      	ldr	r3, [pc, #104]	; (80009f0 <RTC_init+0xdc>)
 8000988:	695b      	ldr	r3, [r3, #20]
 800098a:	4a19      	ldr	r2, [pc, #100]	; (80009f0 <RTC_init+0xdc>)
 800098c:	f043 0304 	orr.w	r3, r3, #4
 8000990:	6153      	str	r3, [r2, #20]
	NVIC_EnableIRQ(RTC_WKUP_IRQn);//RTC_Alarm_IRQn
 8000992:	2003      	movs	r0, #3
 8000994:	f7ff ffa0 	bl	80008d8 <__NVIC_EnableIRQ>
	RTC_unlock();
 8000998:	f000 f846 	bl	8000a28 <RTC_unlock>
	//Disable wake up timer
	CLEAR_BIT(RTC->CR, RTC_CR_WUTE);
 800099c:	4b15      	ldr	r3, [pc, #84]	; (80009f4 <RTC_init+0xe0>)
 800099e:	689b      	ldr	r3, [r3, #8]
 80009a0:	4a14      	ldr	r2, [pc, #80]	; (80009f4 <RTC_init+0xe0>)
 80009a2:	f423 6380 	bic.w	r3, r3, #1024	; 0x400
 80009a6:	6093      	str	r3, [r2, #8]
  \details Ensures the apparent order of the explicit memory operations before
           and after the instruction, without ensuring their completion.
 */
__STATIC_FORCEINLINE void __DMB(void)
{
  __ASM volatile ("dmb 0xF":::"memory");
 80009a8:	f3bf 8f5f 	dmb	sy
}
 80009ac:	bf00      	nop
	__DMB();
	//
	while(!(RTC->ISR & RTC_ISR_WUTWF));
 80009ae:	bf00      	nop
 80009b0:	4b10      	ldr	r3, [pc, #64]	; (80009f4 <RTC_init+0xe0>)
 80009b2:	68db      	ldr	r3, [r3, #12]
 80009b4:	f003 0304 	and.w	r3, r3, #4
 80009b8:	2b00      	cmp	r3, #0
 80009ba:	d0f9      	beq.n	80009b0 <RTC_init+0x9c>
	RTC->WUTR = (2048*5)-1;
 80009bc:	4b0d      	ldr	r3, [pc, #52]	; (80009f4 <RTC_init+0xe0>)
 80009be:	f242 72ff 	movw	r2, #10239	; 0x27ff
 80009c2:	615a      	str	r2, [r3, #20]
	RTC->CR |= RTC_CR_WUTE;
 80009c4:	4b0b      	ldr	r3, [pc, #44]	; (80009f4 <RTC_init+0xe0>)
 80009c6:	689b      	ldr	r3, [r3, #8]
 80009c8:	4a0a      	ldr	r2, [pc, #40]	; (80009f4 <RTC_init+0xe0>)
 80009ca:	f443 6380 	orr.w	r3, r3, #1024	; 0x400
 80009ce:	6093      	str	r3, [r2, #8]
	RTC->ISR &= ~RTC_ISR_WUTF;
 80009d0:	4b08      	ldr	r3, [pc, #32]	; (80009f4 <RTC_init+0xe0>)
 80009d2:	68db      	ldr	r3, [r3, #12]
 80009d4:	4a07      	ldr	r2, [pc, #28]	; (80009f4 <RTC_init+0xe0>)
 80009d6:	f423 6380 	bic.w	r3, r3, #1024	; 0x400
 80009da:	60d3      	str	r3, [r2, #12]
	RTC->WPR = 0xb0;
 80009dc:	4b05      	ldr	r3, [pc, #20]	; (80009f4 <RTC_init+0xe0>)
 80009de:	22b0      	movs	r2, #176	; 0xb0
 80009e0:	625a      	str	r2, [r3, #36]	; 0x24
//		myCalendar.time_val.second = 0;
//		myCalendar.time_format_12h = 0;
//
//		RTC_update(&myCalendar);
//	}
}
 80009e2:	bf00      	nop
 80009e4:	bd80      	pop	{r7, pc}
 80009e6:	bf00      	nop
 80009e8:	40023800 	.word	0x40023800
 80009ec:	40007000 	.word	0x40007000
 80009f0:	40013c00 	.word	0x40013c00
 80009f4:	40002800 	.word	0x40002800

080009f8 <RTC_start>:

void RTC_start(void){
 80009f8:	b580      	push	{r7, lr}
 80009fa:	af00      	add	r7, sp, #0
	RTC_unlock();
 80009fc:	f000 f814 	bl	8000a28 <RTC_unlock>
	RTC->CR |= (RTC_CR_WUTIE | RTC_CR_WUTE);
 8000a00:	4b08      	ldr	r3, [pc, #32]	; (8000a24 <RTC_start+0x2c>)
 8000a02:	689b      	ldr	r3, [r3, #8]
 8000a04:	4a07      	ldr	r2, [pc, #28]	; (8000a24 <RTC_start+0x2c>)
 8000a06:	f443 4388 	orr.w	r3, r3, #17408	; 0x4400
 8000a0a:	6093      	str	r3, [r2, #8]
	while(((RTC->ISR) & RTC_ISR_WUTWF));
 8000a0c:	bf00      	nop
 8000a0e:	4b05      	ldr	r3, [pc, #20]	; (8000a24 <RTC_start+0x2c>)
 8000a10:	68db      	ldr	r3, [r3, #12]
 8000a12:	f003 0304 	and.w	r3, r3, #4
 8000a16:	2b00      	cmp	r3, #0
 8000a18:	d1f9      	bne.n	8000a0e <RTC_start+0x16>
	RTC->WPR = 0xb0;
 8000a1a:	4b02      	ldr	r3, [pc, #8]	; (8000a24 <RTC_start+0x2c>)
 8000a1c:	22b0      	movs	r2, #176	; 0xb0
 8000a1e:	625a      	str	r2, [r3, #36]	; 0x24
}
 8000a20:	bf00      	nop
 8000a22:	bd80      	pop	{r7, pc}
 8000a24:	40002800 	.word	0x40002800

08000a28 <RTC_unlock>:
void RTC_unlock(void) {
 8000a28:	b480      	push	{r7}
 8000a2a:	af00      	add	r7, sp, #0
	/* Disable write protection */
	WRITE_REG(RTC->WPR, 0xCA);
 8000a2c:	4b05      	ldr	r3, [pc, #20]	; (8000a44 <RTC_unlock+0x1c>)
 8000a2e:	22ca      	movs	r2, #202	; 0xca
 8000a30:	625a      	str	r2, [r3, #36]	; 0x24
	WRITE_REG(RTC->WPR, 0x53);
 8000a32:	4b04      	ldr	r3, [pc, #16]	; (8000a44 <RTC_unlock+0x1c>)
 8000a34:	2253      	movs	r2, #83	; 0x53
 8000a36:	625a      	str	r2, [r3, #36]	; 0x24
}
 8000a38:	bf00      	nop
 8000a3a:	46bd      	mov	sp, r7
 8000a3c:	f85d 7b04 	ldr.w	r7, [sp], #4
 8000a40:	4770      	bx	lr
 8000a42:	bf00      	nop
 8000a44:	40002800 	.word	0x40002800

08000a48 <RTC_update>:

void RTC_update(rtcCalendar* calendar) {
 8000a48:	b580      	push	{r7, lr}
 8000a4a:	b08a      	sub	sp, #40	; 0x28
 8000a4c:	af00      	add	r7, sp, #0
 8000a4e:	6078      	str	r0, [r7, #4]
  /* Disable backup domain write protection */
  SET_BIT(PWR->CR, PWR_CR_DBP);
 8000a50:	4b72      	ldr	r3, [pc, #456]	; (8000c1c <RTC_update+0x1d4>)
 8000a52:	681b      	ldr	r3, [r3, #0]
 8000a54:	4a71      	ldr	r2, [pc, #452]	; (8000c1c <RTC_update+0x1d4>)
 8000a56:	f443 7380 	orr.w	r3, r3, #256	; 0x100
 8000a5a:	6013      	str	r3, [r2, #0]

  RTC_unlock();
 8000a5c:	f7ff ffe4 	bl	8000a28 <RTC_unlock>
  /* Enter edit mode */
  SET_BIT(RTC->ISR, RTC_ISR_INIT);
 8000a60:	4b6f      	ldr	r3, [pc, #444]	; (8000c20 <RTC_update+0x1d8>)
 8000a62:	68db      	ldr	r3, [r3, #12]
 8000a64:	4a6e      	ldr	r2, [pc, #440]	; (8000c20 <RTC_update+0x1d8>)
 8000a66:	f043 0380 	orr.w	r3, r3, #128	; 0x80
 8000a6a:	60d3      	str	r3, [r2, #12]
  while (!(RTC->ISR & RTC_ISR_INITF)) {
 8000a6c:	bf00      	nop
 8000a6e:	4b6c      	ldr	r3, [pc, #432]	; (8000c20 <RTC_update+0x1d8>)
 8000a70:	68db      	ldr	r3, [r3, #12]
 8000a72:	f003 0340 	and.w	r3, r3, #64	; 0x40
 8000a76:	2b00      	cmp	r3, #0
 8000a78:	d0f9      	beq.n	8000a6e <RTC_update+0x26>
  };

  /* Setup time */
  uint32_t hour, minute, second, hour_format;
  hour = (((calendar->time_val.hour / 10) << RTC_TR_HT_Pos) & RTC_TR_HT_Msk) |
 8000a7a:	687b      	ldr	r3, [r7, #4]
 8000a7c:	781b      	ldrb	r3, [r3, #0]
 8000a7e:	4a69      	ldr	r2, [pc, #420]	; (8000c24 <RTC_update+0x1dc>)
 8000a80:	fba2 2303 	umull	r2, r3, r2, r3
 8000a84:	08db      	lsrs	r3, r3, #3
 8000a86:	b2db      	uxtb	r3, r3
 8000a88:	051b      	lsls	r3, r3, #20
 8000a8a:	f403 1040 	and.w	r0, r3, #3145728	; 0x300000
      (((calendar->time_val.hour % 10) << RTC_TR_HU_Pos) & RTC_TR_HU_Msk);
 8000a8e:	687b      	ldr	r3, [r7, #4]
 8000a90:	781a      	ldrb	r2, [r3, #0]
 8000a92:	4b64      	ldr	r3, [pc, #400]	; (8000c24 <RTC_update+0x1dc>)
 8000a94:	fba3 1302 	umull	r1, r3, r3, r2
 8000a98:	08d9      	lsrs	r1, r3, #3
 8000a9a:	460b      	mov	r3, r1
 8000a9c:	009b      	lsls	r3, r3, #2
 8000a9e:	440b      	add	r3, r1
 8000aa0:	005b      	lsls	r3, r3, #1
 8000aa2:	1ad3      	subs	r3, r2, r3
 8000aa4:	b2db      	uxtb	r3, r3
 8000aa6:	041b      	lsls	r3, r3, #16
 8000aa8:	f403 2370 	and.w	r3, r3, #983040	; 0xf0000
  hour = (((calendar->time_val.hour / 10) << RTC_TR_HT_Pos) & RTC_TR_HT_Msk) |
 8000aac:	4303      	orrs	r3, r0
 8000aae:	627b      	str	r3, [r7, #36]	; 0x24
  minute = (((calendar->time_val.minute / 10) << RTC_TR_MNT_Pos) & RTC_TR_MNT_Msk) |
 8000ab0:	687b      	ldr	r3, [r7, #4]
 8000ab2:	785b      	ldrb	r3, [r3, #1]
 8000ab4:	4a5b      	ldr	r2, [pc, #364]	; (8000c24 <RTC_update+0x1dc>)
 8000ab6:	fba2 2303 	umull	r2, r3, r2, r3
 8000aba:	08db      	lsrs	r3, r3, #3
 8000abc:	b2db      	uxtb	r3, r3
 8000abe:	031b      	lsls	r3, r3, #12
 8000ac0:	f403 40e0 	and.w	r0, r3, #28672	; 0x7000
      (((calendar->time_val.minute % 10) << RTC_TR_MNU_Pos) & RTC_TR_MNU_Msk);
 8000ac4:	687b      	ldr	r3, [r7, #4]
 8000ac6:	785a      	ldrb	r2, [r3, #1]
 8000ac8:	4b56      	ldr	r3, [pc, #344]	; (8000c24 <RTC_update+0x1dc>)
 8000aca:	fba3 1302 	umull	r1, r3, r3, r2
 8000ace:	08d9      	lsrs	r1, r3, #3
 8000ad0:	460b      	mov	r3, r1
 8000ad2:	009b      	lsls	r3, r3, #2
 8000ad4:	440b      	add	r3, r1
 8000ad6:	005b      	lsls	r3, r3, #1
 8000ad8:	1ad3      	subs	r3, r2, r3
 8000ada:	b2db      	uxtb	r3, r3
 8000adc:	021b      	lsls	r3, r3, #8
 8000ade:	f403 6370 	and.w	r3, r3, #3840	; 0xf00
  minute = (((calendar->time_val.minute / 10) << RTC_TR_MNT_Pos) & RTC_TR_MNT_Msk) |
 8000ae2:	4303      	orrs	r3, r0
 8000ae4:	623b      	str	r3, [r7, #32]
  second = (((calendar->time_val.second / 10) << RTC_TR_ST_Pos) & RTC_TR_ST_Msk) |
 8000ae6:	687b      	ldr	r3, [r7, #4]
 8000ae8:	789b      	ldrb	r3, [r3, #2]
 8000aea:	4a4e      	ldr	r2, [pc, #312]	; (8000c24 <RTC_update+0x1dc>)
 8000aec:	fba2 2303 	umull	r2, r3, r2, r3
 8000af0:	08db      	lsrs	r3, r3, #3
 8000af2:	b2db      	uxtb	r3, r3
 8000af4:	011b      	lsls	r3, r3, #4
 8000af6:	f003 0070 	and.w	r0, r3, #112	; 0x70
      (((calendar->time_val.second % 10) << RTC_TR_SU_Pos) & RTC_TR_SU_Msk);
 8000afa:	687b      	ldr	r3, [r7, #4]
 8000afc:	789a      	ldrb	r2, [r3, #2]
 8000afe:	4b49      	ldr	r3, [pc, #292]	; (8000c24 <RTC_update+0x1dc>)
 8000b00:	fba3 1302 	umull	r1, r3, r3, r2
 8000b04:	08d9      	lsrs	r1, r3, #3
 8000b06:	460b      	mov	r3, r1
 8000b08:	009b      	lsls	r3, r3, #2
 8000b0a:	440b      	add	r3, r1
 8000b0c:	005b      	lsls	r3, r3, #1
 8000b0e:	1ad3      	subs	r3, r2, r3
 8000b10:	b2db      	uxtb	r3, r3
 8000b12:	f003 030f 	and.w	r3, r3, #15
  second = (((calendar->time_val.second / 10) << RTC_TR_ST_Pos) & RTC_TR_ST_Msk) |
 8000b16:	4303      	orrs	r3, r0
 8000b18:	61fb      	str	r3, [r7, #28]
  hour_format = (calendar->time_format_12h << RTC_TR_PM_Pos) & RTC_TR_PM_Msk;
 8000b1a:	687b      	ldr	r3, [r7, #4]
 8000b1c:	799b      	ldrb	r3, [r3, #6]
 8000b1e:	059b      	lsls	r3, r3, #22
 8000b20:	f403 0380 	and.w	r3, r3, #4194304	; 0x400000
 8000b24:	61bb      	str	r3, [r7, #24]
  WRITE_REG(RTC->TR, (hour | minute | second | hour_format));
 8000b26:	6a7a      	ldr	r2, [r7, #36]	; 0x24
 8000b28:	6a3b      	ldr	r3, [r7, #32]
 8000b2a:	431a      	orrs	r2, r3
 8000b2c:	69fb      	ldr	r3, [r7, #28]
 8000b2e:	431a      	orrs	r2, r3
 8000b30:	493b      	ldr	r1, [pc, #236]	; (8000c20 <RTC_update+0x1d8>)
 8000b32:	69bb      	ldr	r3, [r7, #24]
 8000b34:	4313      	orrs	r3, r2
 8000b36:	600b      	str	r3, [r1, #0]

  /* Setup date */
  uint32_t year, month, day, weekday;
  year = (((calendar->date_val.year / 10) << RTC_DR_YT_Pos) & RTC_DR_YT_Msk) |
 8000b38:	687b      	ldr	r3, [r7, #4]
 8000b3a:	795b      	ldrb	r3, [r3, #5]
 8000b3c:	4a39      	ldr	r2, [pc, #228]	; (8000c24 <RTC_update+0x1dc>)
 8000b3e:	fba2 2303 	umull	r2, r3, r2, r3
 8000b42:	08db      	lsrs	r3, r3, #3
 8000b44:	b2db      	uxtb	r3, r3
 8000b46:	051b      	lsls	r3, r3, #20
 8000b48:	f403 0070 	and.w	r0, r3, #15728640	; 0xf00000
      (((calendar->date_val.year % 10) << RTC_DR_YU_Pos) & RTC_DR_YU_Msk);
 8000b4c:	687b      	ldr	r3, [r7, #4]
 8000b4e:	795a      	ldrb	r2, [r3, #5]
 8000b50:	4b34      	ldr	r3, [pc, #208]	; (8000c24 <RTC_update+0x1dc>)
 8000b52:	fba3 1302 	umull	r1, r3, r3, r2
 8000b56:	08d9      	lsrs	r1, r3, #3
 8000b58:	460b      	mov	r3, r1
 8000b5a:	009b      	lsls	r3, r3, #2
 8000b5c:	440b      	add	r3, r1
 8000b5e:	005b      	lsls	r3, r3, #1
 8000b60:	1ad3      	subs	r3, r2, r3
 8000b62:	b2db      	uxtb	r3, r3
 8000b64:	041b      	lsls	r3, r3, #16
 8000b66:	f403 2370 	and.w	r3, r3, #983040	; 0xf0000
  year = (((calendar->date_val.year / 10) << RTC_DR_YT_Pos) & RTC_DR_YT_Msk) |
 8000b6a:	4303      	orrs	r3, r0
 8000b6c:	617b      	str	r3, [r7, #20]
  month = (((calendar->date_val.month / 10) << RTC_DR_MT_Pos) & RTC_DR_MT_Msk) |
 8000b6e:	687b      	ldr	r3, [r7, #4]
 8000b70:	791b      	ldrb	r3, [r3, #4]
 8000b72:	4a2c      	ldr	r2, [pc, #176]	; (8000c24 <RTC_update+0x1dc>)
 8000b74:	fba2 2303 	umull	r2, r3, r2, r3
 8000b78:	08db      	lsrs	r3, r3, #3
 8000b7a:	b2db      	uxtb	r3, r3
 8000b7c:	031b      	lsls	r3, r3, #12
 8000b7e:	f403 5080 	and.w	r0, r3, #4096	; 0x1000
      (((calendar->date_val.month % 10) << RTC_DR_MU_Pos) & RTC_DR_MU_Msk);
 8000b82:	687b      	ldr	r3, [r7, #4]
 8000b84:	791a      	ldrb	r2, [r3, #4]
 8000b86:	4b27      	ldr	r3, [pc, #156]	; (8000c24 <RTC_update+0x1dc>)
 8000b88:	fba3 1302 	umull	r1, r3, r3, r2
 8000b8c:	08d9      	lsrs	r1, r3, #3
 8000b8e:	460b      	mov	r3, r1
 8000b90:	009b      	lsls	r3, r3, #2
 8000b92:	440b      	add	r3, r1
 8000b94:	005b      	lsls	r3, r3, #1
 8000b96:	1ad3      	subs	r3, r2, r3
 8000b98:	b2db      	uxtb	r3, r3
 8000b9a:	021b      	lsls	r3, r3, #8
 8000b9c:	f403 6370 	and.w	r3, r3, #3840	; 0xf00
  month = (((calendar->date_val.month / 10) << RTC_DR_MT_Pos) & RTC_DR_MT_Msk) |
 8000ba0:	4303      	orrs	r3, r0
 8000ba2:	613b      	str	r3, [r7, #16]
  day = (((calendar->date_val.day / 10) << RTC_DR_DT_Pos) & RTC_DR_DT_Msk) |
 8000ba4:	687b      	ldr	r3, [r7, #4]
 8000ba6:	78db      	ldrb	r3, [r3, #3]
 8000ba8:	4a1e      	ldr	r2, [pc, #120]	; (8000c24 <RTC_update+0x1dc>)
 8000baa:	fba2 2303 	umull	r2, r3, r2, r3
 8000bae:	08db      	lsrs	r3, r3, #3
 8000bb0:	b2db      	uxtb	r3, r3
 8000bb2:	011b      	lsls	r3, r3, #4
 8000bb4:	f003 0030 	and.w	r0, r3, #48	; 0x30
      (((calendar->date_val.day % 10) << RTC_DR_DU_Pos) & RTC_DR_DU_Msk);
 8000bb8:	687b      	ldr	r3, [r7, #4]
 8000bba:	78da      	ldrb	r2, [r3, #3]
 8000bbc:	4b19      	ldr	r3, [pc, #100]	; (8000c24 <RTC_update+0x1dc>)
 8000bbe:	fba3 1302 	umull	r1, r3, r3, r2
 8000bc2:	08d9      	lsrs	r1, r3, #3
 8000bc4:	460b      	mov	r3, r1
 8000bc6:	009b      	lsls	r3, r3, #2
 8000bc8:	440b      	add	r3, r1
 8000bca:	005b      	lsls	r3, r3, #1
 8000bcc:	1ad3      	subs	r3, r2, r3
 8000bce:	b2db      	uxtb	r3, r3
 8000bd0:	f003 030f 	and.w	r3, r3, #15
  day = (((calendar->date_val.day / 10) << RTC_DR_DT_Pos) & RTC_DR_DT_Msk) |
 8000bd4:	4303      	orrs	r3, r0
 8000bd6:	60fb      	str	r3, [r7, #12]
  weekday = (calendar->weekday << RTC_DR_WDU_Pos) & RTC_DR_WDU_Msk;
 8000bd8:	687b      	ldr	r3, [r7, #4]
 8000bda:	79db      	ldrb	r3, [r3, #7]
 8000bdc:	035b      	lsls	r3, r3, #13
 8000bde:	b29b      	uxth	r3, r3
 8000be0:	60bb      	str	r3, [r7, #8]
  WRITE_REG(RTC->DR, (year | month | day | weekday));
 8000be2:	697a      	ldr	r2, [r7, #20]
 8000be4:	693b      	ldr	r3, [r7, #16]
 8000be6:	431a      	orrs	r2, r3
 8000be8:	68fb      	ldr	r3, [r7, #12]
 8000bea:	431a      	orrs	r2, r3
 8000bec:	490c      	ldr	r1, [pc, #48]	; (8000c20 <RTC_update+0x1d8>)
 8000bee:	68bb      	ldr	r3, [r7, #8]
 8000bf0:	4313      	orrs	r3, r2
 8000bf2:	604b      	str	r3, [r1, #4]

  /* Exit edit mode */
  CLEAR_BIT(RTC->ISR, RTC_ISR_INIT);
 8000bf4:	4b0a      	ldr	r3, [pc, #40]	; (8000c20 <RTC_update+0x1d8>)
 8000bf6:	68db      	ldr	r3, [r3, #12]
 8000bf8:	4a09      	ldr	r2, [pc, #36]	; (8000c20 <RTC_update+0x1d8>)
 8000bfa:	f023 0380 	bic.w	r3, r3, #128	; 0x80
 8000bfe:	60d3      	str	r3, [r2, #12]
  /* Disable write protection */
  WRITE_REG(RTC->WPR, 0xFF);
 8000c00:	4b07      	ldr	r3, [pc, #28]	; (8000c20 <RTC_update+0x1d8>)
 8000c02:	22ff      	movs	r2, #255	; 0xff
 8000c04:	625a      	str	r2, [r3, #36]	; 0x24

  /* Enable backup domain write protection */
  CLEAR_BIT(PWR->CR, PWR_CR_DBP);
 8000c06:	4b05      	ldr	r3, [pc, #20]	; (8000c1c <RTC_update+0x1d4>)
 8000c08:	681b      	ldr	r3, [r3, #0]
 8000c0a:	4a04      	ldr	r2, [pc, #16]	; (8000c1c <RTC_update+0x1d4>)
 8000c0c:	f423 7380 	bic.w	r3, r3, #256	; 0x100
 8000c10:	6013      	str	r3, [r2, #0]
}
 8000c12:	bf00      	nop
 8000c14:	3728      	adds	r7, #40	; 0x28
 8000c16:	46bd      	mov	sp, r7
 8000c18:	bd80      	pop	{r7, pc}
 8000c1a:	bf00      	nop
 8000c1c:	40007000 	.word	0x40007000
 8000c20:	40002800 	.word	0x40002800
 8000c24:	cccccccd 	.word	0xcccccccd

08000c28 <xTaskIncrementTick>:

#endif /* INCLUDE_xTaskAbortDelay */
/*----------------------------------------------------------*/

BaseType_t xTaskIncrementTick( void )
{
 8000c28:	b580      	push	{r7, lr}
 8000c2a:	b08a      	sub	sp, #40	; 0x28
 8000c2c:	af00      	add	r7, sp, #0
    TCB_t * pxTCB;
    TickType_t xItemValue;
    BaseType_t xSwitchRequired = pdFALSE;
 8000c2e:	2300      	movs	r3, #0
 8000c30:	627b      	str	r3, [r7, #36]	; 0x24
    /* Called by the portable layer each time a tick interrupt occurs.
     * Increments the tick then checks to see if the new tick value will cause any
     * tasks to be unblocked. */
    traceTASK_INCREMENT_TICK( xTickCount );

    if( uxSchedulerSuspended == ( UBaseType_t ) pdFALSE )
 8000c32:	4b6e      	ldr	r3, [pc, #440]	; (8000dec <xTaskIncrementTick+0x1c4>)
 8000c34:	681b      	ldr	r3, [r3, #0]
 8000c36:	2b00      	cmp	r3, #0
 8000c38:	f040 80cd 	bne.w	8000dd6 <xTaskIncrementTick+0x1ae>
    {
        /* Minor optimisation.  The tick count cannot change in this
         * block. */
        const TickType_t xConstTickCount = xTickCount + ( TickType_t ) 1;
 8000c3c:	4b6c      	ldr	r3, [pc, #432]	; (8000df0 <xTaskIncrementTick+0x1c8>)
 8000c3e:	681b      	ldr	r3, [r3, #0]
 8000c40:	3301      	adds	r3, #1
 8000c42:	623b      	str	r3, [r7, #32]

        /* Increment the RTOS tick, switching the delayed and overflowed
         * delayed lists if it wraps to 0. */
        xTickCount = xConstTickCount;
 8000c44:	4a6a      	ldr	r2, [pc, #424]	; (8000df0 <xTaskIncrementTick+0x1c8>)
 8000c46:	6a3b      	ldr	r3, [r7, #32]
 8000c48:	6013      	str	r3, [r2, #0]

        if( xConstTickCount == ( TickType_t ) 0U ) /*lint !e774 'if' does not always evaluate to false as it is looking for an overflow. */
 8000c4a:	6a3b      	ldr	r3, [r7, #32]
 8000c4c:	2b00      	cmp	r3, #0
 8000c4e:	d120      	bne.n	8000c92 <xTaskIncrementTick+0x6a>
        {
            taskSWITCH_DELAYED_LISTS();
 8000c50:	4b68      	ldr	r3, [pc, #416]	; (8000df4 <xTaskIncrementTick+0x1cc>)
 8000c52:	681b      	ldr	r3, [r3, #0]
 8000c54:	681b      	ldr	r3, [r3, #0]
 8000c56:	2b00      	cmp	r3, #0
 8000c58:	d00a      	beq.n	8000c70 <xTaskIncrementTick+0x48>

    portFORCE_INLINE static void vPortRaiseBASEPRI( void )
    {
        uint32_t ulNewBASEPRI;

        __asm volatile
 8000c5a:	f04f 0350 	mov.w	r3, #80	; 0x50
 8000c5e:	f383 8811 	msr	BASEPRI, r3
 8000c62:	f3bf 8f6f 	isb	sy
 8000c66:	f3bf 8f4f 	dsb	sy
 8000c6a:	607b      	str	r3, [r7, #4]
            "	msr basepri, %0											\n"\
            "	isb														\n"\
            "	dsb														\n"\
            : "=r" ( ulNewBASEPRI ) : "i" ( configMAX_SYSCALL_INTERRUPT_PRIORITY ) : "memory"
        );
    }
 8000c6c:	bf00      	nop
 8000c6e:	e7fe      	b.n	8000c6e <xTaskIncrementTick+0x46>
 8000c70:	4b60      	ldr	r3, [pc, #384]	; (8000df4 <xTaskIncrementTick+0x1cc>)
 8000c72:	681b      	ldr	r3, [r3, #0]
 8000c74:	61fb      	str	r3, [r7, #28]
 8000c76:	4b60      	ldr	r3, [pc, #384]	; (8000df8 <xTaskIncrementTick+0x1d0>)
 8000c78:	681b      	ldr	r3, [r3, #0]
 8000c7a:	4a5e      	ldr	r2, [pc, #376]	; (8000df4 <xTaskIncrementTick+0x1cc>)
 8000c7c:	6013      	str	r3, [r2, #0]
 8000c7e:	4a5e      	ldr	r2, [pc, #376]	; (8000df8 <xTaskIncrementTick+0x1d0>)
 8000c80:	69fb      	ldr	r3, [r7, #28]
 8000c82:	6013      	str	r3, [r2, #0]
 8000c84:	4b5d      	ldr	r3, [pc, #372]	; (8000dfc <xTaskIncrementTick+0x1d4>)
 8000c86:	681b      	ldr	r3, [r3, #0]
 8000c88:	3301      	adds	r3, #1
 8000c8a:	4a5c      	ldr	r2, [pc, #368]	; (8000dfc <xTaskIncrementTick+0x1d4>)
 8000c8c:	6013      	str	r3, [r2, #0]
 8000c8e:	f000 f91b 	bl	8000ec8 <prvResetNextTaskUnblockTime>

        /* See if this tick has made a timeout expire.  Tasks are stored in
         * the  queue in the order of their wake time - meaning once one task
         * has been found whose block time has not expired there is no need to
         * look any further down the list. */
        if( xConstTickCount >= xNextTaskUnblockTime )
 8000c92:	4b5b      	ldr	r3, [pc, #364]	; (8000e00 <xTaskIncrementTick+0x1d8>)
 8000c94:	681b      	ldr	r3, [r3, #0]
 8000c96:	6a3a      	ldr	r2, [r7, #32]
 8000c98:	429a      	cmp	r2, r3
 8000c9a:	f0c0 80a1 	bcc.w	8000de0 <xTaskIncrementTick+0x1b8>
        {
            for( ; ; )
            {
                if( listLIST_IS_EMPTY( pxDelayedTaskList ) != pdFALSE )
 8000c9e:	4b55      	ldr	r3, [pc, #340]	; (8000df4 <xTaskIncrementTick+0x1cc>)
 8000ca0:	681b      	ldr	r3, [r3, #0]
 8000ca2:	681b      	ldr	r3, [r3, #0]
 8000ca4:	2b00      	cmp	r3, #0
 8000ca6:	d104      	bne.n	8000cb2 <xTaskIncrementTick+0x8a>
                    /* The delayed list is empty.  Set xNextTaskUnblockTime
                     * to the maximum possible value so it is extremely
                     * unlikely that the
                     * if( xTickCount >= xNextTaskUnblockTime ) test will pass
                     * next time through. */
                    xNextTaskUnblockTime = portMAX_DELAY; /*lint !e961 MISRA exception as the casts are only redundant for some ports. */
 8000ca8:	4b55      	ldr	r3, [pc, #340]	; (8000e00 <xTaskIncrementTick+0x1d8>)
 8000caa:	f04f 32ff 	mov.w	r2, #4294967295	; 0xffffffff
 8000cae:	601a      	str	r2, [r3, #0]
                    break;
 8000cb0:	e096      	b.n	8000de0 <xTaskIncrementTick+0x1b8>
                {
                    /* The delayed list is not empty, get the value of the
                     * item at the head of the delayed list.  This is the time
                     * at which the task at the head of the delayed list must
                     * be removed from the Blocked state. */
                    pxTCB = listGET_OWNER_OF_HEAD_ENTRY( pxDelayedTaskList ); /*lint !e9079 void * is used as this macro is used with timers and co-routines too.  Alignment is known to be fine as the type of the pointer stored and retrieved is the same. */
 8000cb2:	4b50      	ldr	r3, [pc, #320]	; (8000df4 <xTaskIncrementTick+0x1cc>)
 8000cb4:	681b      	ldr	r3, [r3, #0]
 8000cb6:	68db      	ldr	r3, [r3, #12]
 8000cb8:	68db      	ldr	r3, [r3, #12]
 8000cba:	61bb      	str	r3, [r7, #24]
                    xItemValue = listGET_LIST_ITEM_VALUE( &( pxTCB->xStateListItem ) );
 8000cbc:	69bb      	ldr	r3, [r7, #24]
 8000cbe:	685b      	ldr	r3, [r3, #4]
 8000cc0:	617b      	str	r3, [r7, #20]

                    if( xConstTickCount < xItemValue )
 8000cc2:	6a3a      	ldr	r2, [r7, #32]
 8000cc4:	697b      	ldr	r3, [r7, #20]
 8000cc6:	429a      	cmp	r2, r3
 8000cc8:	d203      	bcs.n	8000cd2 <xTaskIncrementTick+0xaa>
                        /* It is not time to unblock this item yet, but the
                         * item value is the time at which the task at the head
                         * of the blocked list must be removed from the Blocked
                         * state -  so record the item value in
                         * xNextTaskUnblockTime. */
                        xNextTaskUnblockTime = xItemValue;
 8000cca:	4a4d      	ldr	r2, [pc, #308]	; (8000e00 <xTaskIncrementTick+0x1d8>)
 8000ccc:	697b      	ldr	r3, [r7, #20]
 8000cce:	6013      	str	r3, [r2, #0]
                        break; /*lint !e9011 Code structure here is deemed easier to understand with multiple breaks. */
 8000cd0:	e086      	b.n	8000de0 <xTaskIncrementTick+0x1b8>
                    {
                        mtCOVERAGE_TEST_MARKER();
                    }

                    /* It is time to remove the item from the Blocked state. */
                    listREMOVE_ITEM( &( pxTCB->xStateListItem ) );
 8000cd2:	69bb      	ldr	r3, [r7, #24]
 8000cd4:	695b      	ldr	r3, [r3, #20]
 8000cd6:	613b      	str	r3, [r7, #16]
 8000cd8:	69bb      	ldr	r3, [r7, #24]
 8000cda:	689b      	ldr	r3, [r3, #8]
 8000cdc:	69ba      	ldr	r2, [r7, #24]
 8000cde:	68d2      	ldr	r2, [r2, #12]
 8000ce0:	609a      	str	r2, [r3, #8]
 8000ce2:	69bb      	ldr	r3, [r7, #24]
 8000ce4:	68db      	ldr	r3, [r3, #12]
 8000ce6:	69ba      	ldr	r2, [r7, #24]
 8000ce8:	6892      	ldr	r2, [r2, #8]
 8000cea:	605a      	str	r2, [r3, #4]
 8000cec:	693b      	ldr	r3, [r7, #16]
 8000cee:	685a      	ldr	r2, [r3, #4]
 8000cf0:	69bb      	ldr	r3, [r7, #24]
 8000cf2:	3304      	adds	r3, #4
 8000cf4:	429a      	cmp	r2, r3
 8000cf6:	d103      	bne.n	8000d00 <xTaskIncrementTick+0xd8>
 8000cf8:	69bb      	ldr	r3, [r7, #24]
 8000cfa:	68da      	ldr	r2, [r3, #12]
 8000cfc:	693b      	ldr	r3, [r7, #16]
 8000cfe:	605a      	str	r2, [r3, #4]
 8000d00:	69bb      	ldr	r3, [r7, #24]
 8000d02:	2200      	movs	r2, #0
 8000d04:	615a      	str	r2, [r3, #20]
 8000d06:	693b      	ldr	r3, [r7, #16]
 8000d08:	681b      	ldr	r3, [r3, #0]
 8000d0a:	1e5a      	subs	r2, r3, #1
 8000d0c:	693b      	ldr	r3, [r7, #16]
 8000d0e:	601a      	str	r2, [r3, #0]

                    /* Is the task waiting on an event also?  If so remove
                     * it from the event list. */
                    if( listLIST_ITEM_CONTAINER( &( pxTCB->xEventListItem ) ) != NULL )
 8000d10:	69bb      	ldr	r3, [r7, #24]
 8000d12:	6a9b      	ldr	r3, [r3, #40]	; 0x28
 8000d14:	2b00      	cmp	r3, #0
 8000d16:	d01e      	beq.n	8000d56 <xTaskIncrementTick+0x12e>
                    {
                        listREMOVE_ITEM( &( pxTCB->xEventListItem ) );
 8000d18:	69bb      	ldr	r3, [r7, #24]
 8000d1a:	6a9b      	ldr	r3, [r3, #40]	; 0x28
 8000d1c:	60fb      	str	r3, [r7, #12]
 8000d1e:	69bb      	ldr	r3, [r7, #24]
 8000d20:	69db      	ldr	r3, [r3, #28]
 8000d22:	69ba      	ldr	r2, [r7, #24]
 8000d24:	6a12      	ldr	r2, [r2, #32]
 8000d26:	609a      	str	r2, [r3, #8]
 8000d28:	69bb      	ldr	r3, [r7, #24]
 8000d2a:	6a1b      	ldr	r3, [r3, #32]
 8000d2c:	69ba      	ldr	r2, [r7, #24]
 8000d2e:	69d2      	ldr	r2, [r2, #28]
 8000d30:	605a      	str	r2, [r3, #4]
 8000d32:	68fb      	ldr	r3, [r7, #12]
 8000d34:	685a      	ldr	r2, [r3, #4]
 8000d36:	69bb      	ldr	r3, [r7, #24]
 8000d38:	3318      	adds	r3, #24
 8000d3a:	429a      	cmp	r2, r3
 8000d3c:	d103      	bne.n	8000d46 <xTaskIncrementTick+0x11e>
 8000d3e:	69bb      	ldr	r3, [r7, #24]
 8000d40:	6a1a      	ldr	r2, [r3, #32]
 8000d42:	68fb      	ldr	r3, [r7, #12]
 8000d44:	605a      	str	r2, [r3, #4]
 8000d46:	69bb      	ldr	r3, [r7, #24]
 8000d48:	2200      	movs	r2, #0
 8000d4a:	629a      	str	r2, [r3, #40]	; 0x28
 8000d4c:	68fb      	ldr	r3, [r7, #12]
 8000d4e:	681b      	ldr	r3, [r3, #0]
 8000d50:	1e5a      	subs	r2, r3, #1
 8000d52:	68fb      	ldr	r3, [r7, #12]
 8000d54:	601a      	str	r2, [r3, #0]
                        mtCOVERAGE_TEST_MARKER();
                    }

                    /* Place the unblocked task into the appropriate ready
                     * list. */
                    prvAddTaskToReadyList( pxTCB );
 8000d56:	69bb      	ldr	r3, [r7, #24]
 8000d58:	6adb      	ldr	r3, [r3, #44]	; 0x2c
 8000d5a:	2201      	movs	r2, #1
 8000d5c:	409a      	lsls	r2, r3
 8000d5e:	4b29      	ldr	r3, [pc, #164]	; (8000e04 <xTaskIncrementTick+0x1dc>)
 8000d60:	681b      	ldr	r3, [r3, #0]
 8000d62:	4313      	orrs	r3, r2
 8000d64:	4a27      	ldr	r2, [pc, #156]	; (8000e04 <xTaskIncrementTick+0x1dc>)
 8000d66:	6013      	str	r3, [r2, #0]
 8000d68:	69bb      	ldr	r3, [r7, #24]
 8000d6a:	6ada      	ldr	r2, [r3, #44]	; 0x2c
 8000d6c:	4926      	ldr	r1, [pc, #152]	; (8000e08 <xTaskIncrementTick+0x1e0>)
 8000d6e:	4613      	mov	r3, r2
 8000d70:	009b      	lsls	r3, r3, #2
 8000d72:	4413      	add	r3, r2
 8000d74:	009b      	lsls	r3, r3, #2
 8000d76:	440b      	add	r3, r1
 8000d78:	3304      	adds	r3, #4
 8000d7a:	681b      	ldr	r3, [r3, #0]
 8000d7c:	60bb      	str	r3, [r7, #8]
 8000d7e:	69bb      	ldr	r3, [r7, #24]
 8000d80:	68ba      	ldr	r2, [r7, #8]
 8000d82:	609a      	str	r2, [r3, #8]
 8000d84:	68bb      	ldr	r3, [r7, #8]
 8000d86:	689a      	ldr	r2, [r3, #8]
 8000d88:	69bb      	ldr	r3, [r7, #24]
 8000d8a:	60da      	str	r2, [r3, #12]
 8000d8c:	68bb      	ldr	r3, [r7, #8]
 8000d8e:	689b      	ldr	r3, [r3, #8]
 8000d90:	69ba      	ldr	r2, [r7, #24]
 8000d92:	3204      	adds	r2, #4
 8000d94:	605a      	str	r2, [r3, #4]
 8000d96:	69bb      	ldr	r3, [r7, #24]
 8000d98:	1d1a      	adds	r2, r3, #4
 8000d9a:	68bb      	ldr	r3, [r7, #8]
 8000d9c:	609a      	str	r2, [r3, #8]
 8000d9e:	69bb      	ldr	r3, [r7, #24]
 8000da0:	6ada      	ldr	r2, [r3, #44]	; 0x2c
 8000da2:	4613      	mov	r3, r2
 8000da4:	009b      	lsls	r3, r3, #2
 8000da6:	4413      	add	r3, r2
 8000da8:	009b      	lsls	r3, r3, #2
 8000daa:	4a17      	ldr	r2, [pc, #92]	; (8000e08 <xTaskIncrementTick+0x1e0>)
 8000dac:	441a      	add	r2, r3
 8000dae:	69bb      	ldr	r3, [r7, #24]
 8000db0:	615a      	str	r2, [r3, #20]
 8000db2:	69bb      	ldr	r3, [r7, #24]
 8000db4:	6ada      	ldr	r2, [r3, #44]	; 0x2c
 8000db6:	4914      	ldr	r1, [pc, #80]	; (8000e08 <xTaskIncrementTick+0x1e0>)
 8000db8:	4613      	mov	r3, r2
 8000dba:	009b      	lsls	r3, r3, #2
 8000dbc:	4413      	add	r3, r2
 8000dbe:	009b      	lsls	r3, r3, #2
 8000dc0:	440b      	add	r3, r1
 8000dc2:	681b      	ldr	r3, [r3, #0]
 8000dc4:	1c59      	adds	r1, r3, #1
 8000dc6:	4810      	ldr	r0, [pc, #64]	; (8000e08 <xTaskIncrementTick+0x1e0>)
 8000dc8:	4613      	mov	r3, r2
 8000dca:	009b      	lsls	r3, r3, #2
 8000dcc:	4413      	add	r3, r2
 8000dce:	009b      	lsls	r3, r3, #2
 8000dd0:	4403      	add	r3, r0
 8000dd2:	6019      	str	r1, [r3, #0]
                if( listLIST_IS_EMPTY( pxDelayedTaskList ) != pdFALSE )
 8000dd4:	e763      	b.n	8000c9e <xTaskIncrementTick+0x76>
        }
        #endif /* configUSE_PREEMPTION */
    }
    else
    {
        ++xPendedTicks;
 8000dd6:	4b0d      	ldr	r3, [pc, #52]	; (8000e0c <xTaskIncrementTick+0x1e4>)
 8000dd8:	681b      	ldr	r3, [r3, #0]
 8000dda:	3301      	adds	r3, #1
 8000ddc:	4a0b      	ldr	r2, [pc, #44]	; (8000e0c <xTaskIncrementTick+0x1e4>)
 8000dde:	6013      	str	r3, [r2, #0]
            vApplicationTickHook();
        }
        #endif
    }

    return xSwitchRequired;
 8000de0:	6a7b      	ldr	r3, [r7, #36]	; 0x24
}
 8000de2:	4618      	mov	r0, r3
 8000de4:	3728      	adds	r7, #40	; 0x28
 8000de6:	46bd      	mov	sp, r7
 8000de8:	bd80      	pop	{r7, pc}
 8000dea:	bf00      	nop
 8000dec:	200000d0 	.word	0x200000d0
 8000df0:	200000b8 	.word	0x200000b8
 8000df4:	200000b0 	.word	0x200000b0
 8000df8:	200000b4 	.word	0x200000b4
 8000dfc:	200000c8 	.word	0x200000c8
 8000e00:	200000cc 	.word	0x200000cc
 8000e04:	200000bc 	.word	0x200000bc
 8000e08:	2000004c 	.word	0x2000004c
 8000e0c:	200000c0 	.word	0x200000c0

08000e10 <vTaskSwitchContext>:

#endif /* configUSE_APPLICATION_TASK_TAG */
/*-----------------------------------------------------------*/

void vTaskSwitchContext( void )
{
 8000e10:	b480      	push	{r7}
 8000e12:	b087      	sub	sp, #28
 8000e14:	af00      	add	r7, sp, #0
    if( uxSchedulerSuspended != ( UBaseType_t ) pdFALSE )
 8000e16:	4b27      	ldr	r3, [pc, #156]	; (8000eb4 <vTaskSwitchContext+0xa4>)
 8000e18:	681b      	ldr	r3, [r3, #0]
 8000e1a:	2b00      	cmp	r3, #0
 8000e1c:	d003      	beq.n	8000e26 <vTaskSwitchContext+0x16>
    {
        /* The scheduler is currently suspended - do not allow a context
         * switch. */
        xYieldPending = pdTRUE;
 8000e1e:	4b26      	ldr	r3, [pc, #152]	; (8000eb8 <vTaskSwitchContext+0xa8>)
 8000e20:	2201      	movs	r2, #1
 8000e22:	601a      	str	r2, [r3, #0]
             * Block specific to this task. */
            configSET_TLS_BLOCK( pxCurrentTCB->xTLSBlock );
        }
        #endif
    }
}
 8000e24:	e03f      	b.n	8000ea6 <vTaskSwitchContext+0x96>
        xYieldPending = pdFALSE;
 8000e26:	4b24      	ldr	r3, [pc, #144]	; (8000eb8 <vTaskSwitchContext+0xa8>)
 8000e28:	2200      	movs	r2, #0
 8000e2a:	601a      	str	r2, [r3, #0]
        taskSELECT_HIGHEST_PRIORITY_TASK(); /*lint !e9079 void * is used as this macro is used with timers and co-routines too.  Alignment is known to be fine as the type of the pointer stored and retrieved is the same. */
 8000e2c:	4b23      	ldr	r3, [pc, #140]	; (8000ebc <vTaskSwitchContext+0xac>)
 8000e2e:	681b      	ldr	r3, [r3, #0]
 8000e30:	60fb      	str	r3, [r7, #12]
            __asm volatile ( "clz %0, %1" : "=r" ( ucReturn ) : "r" ( ulBitmap ) : "memory" );
 8000e32:	68fb      	ldr	r3, [r7, #12]
 8000e34:	fab3 f383 	clz	r3, r3
 8000e38:	72fb      	strb	r3, [r7, #11]
            return ucReturn;
 8000e3a:	7afb      	ldrb	r3, [r7, #11]
 8000e3c:	f1c3 031f 	rsb	r3, r3, #31
 8000e40:	617b      	str	r3, [r7, #20]
 8000e42:	491f      	ldr	r1, [pc, #124]	; (8000ec0 <vTaskSwitchContext+0xb0>)
 8000e44:	697a      	ldr	r2, [r7, #20]
 8000e46:	4613      	mov	r3, r2
 8000e48:	009b      	lsls	r3, r3, #2
 8000e4a:	4413      	add	r3, r2
 8000e4c:	009b      	lsls	r3, r3, #2
 8000e4e:	440b      	add	r3, r1
 8000e50:	681b      	ldr	r3, [r3, #0]
 8000e52:	2b00      	cmp	r3, #0
 8000e54:	d10a      	bne.n	8000e6c <vTaskSwitchContext+0x5c>
        __asm volatile
 8000e56:	f04f 0350 	mov.w	r3, #80	; 0x50
 8000e5a:	f383 8811 	msr	BASEPRI, r3
 8000e5e:	f3bf 8f6f 	isb	sy
 8000e62:	f3bf 8f4f 	dsb	sy
 8000e66:	607b      	str	r3, [r7, #4]
    }
 8000e68:	bf00      	nop
 8000e6a:	e7fe      	b.n	8000e6a <vTaskSwitchContext+0x5a>
 8000e6c:	697a      	ldr	r2, [r7, #20]
 8000e6e:	4613      	mov	r3, r2
 8000e70:	009b      	lsls	r3, r3, #2
 8000e72:	4413      	add	r3, r2
 8000e74:	009b      	lsls	r3, r3, #2
 8000e76:	4a12      	ldr	r2, [pc, #72]	; (8000ec0 <vTaskSwitchContext+0xb0>)
 8000e78:	4413      	add	r3, r2
 8000e7a:	613b      	str	r3, [r7, #16]
 8000e7c:	693b      	ldr	r3, [r7, #16]
 8000e7e:	685b      	ldr	r3, [r3, #4]
 8000e80:	685a      	ldr	r2, [r3, #4]
 8000e82:	693b      	ldr	r3, [r7, #16]
 8000e84:	605a      	str	r2, [r3, #4]
 8000e86:	693b      	ldr	r3, [r7, #16]
 8000e88:	685a      	ldr	r2, [r3, #4]
 8000e8a:	693b      	ldr	r3, [r7, #16]
 8000e8c:	3308      	adds	r3, #8
 8000e8e:	429a      	cmp	r2, r3
 8000e90:	d104      	bne.n	8000e9c <vTaskSwitchContext+0x8c>
 8000e92:	693b      	ldr	r3, [r7, #16]
 8000e94:	685b      	ldr	r3, [r3, #4]
 8000e96:	685a      	ldr	r2, [r3, #4]
 8000e98:	693b      	ldr	r3, [r7, #16]
 8000e9a:	605a      	str	r2, [r3, #4]
 8000e9c:	693b      	ldr	r3, [r7, #16]
 8000e9e:	685b      	ldr	r3, [r3, #4]
 8000ea0:	68db      	ldr	r3, [r3, #12]
 8000ea2:	4a08      	ldr	r2, [pc, #32]	; (8000ec4 <vTaskSwitchContext+0xb4>)
 8000ea4:	6013      	str	r3, [r2, #0]
}
 8000ea6:	bf00      	nop
 8000ea8:	371c      	adds	r7, #28
 8000eaa:	46bd      	mov	sp, r7
 8000eac:	f85d 7b04 	ldr.w	r7, [sp], #4
 8000eb0:	4770      	bx	lr
 8000eb2:	bf00      	nop
 8000eb4:	200000d0 	.word	0x200000d0
 8000eb8:	200000c4 	.word	0x200000c4
 8000ebc:	200000bc 	.word	0x200000bc
 8000ec0:	2000004c 	.word	0x2000004c
 8000ec4:	20000048 	.word	0x20000048

08000ec8 <prvResetNextTaskUnblockTime>:

#endif /* INCLUDE_vTaskDelete */
/*-----------------------------------------------------------*/

static void prvResetNextTaskUnblockTime( void )
{
 8000ec8:	b480      	push	{r7}
 8000eca:	af00      	add	r7, sp, #0
    if( listLIST_IS_EMPTY( pxDelayedTaskList ) != pdFALSE )
 8000ecc:	4b0a      	ldr	r3, [pc, #40]	; (8000ef8 <prvResetNextTaskUnblockTime+0x30>)
 8000ece:	681b      	ldr	r3, [r3, #0]
 8000ed0:	681b      	ldr	r3, [r3, #0]
 8000ed2:	2b00      	cmp	r3, #0
 8000ed4:	d104      	bne.n	8000ee0 <prvResetNextTaskUnblockTime+0x18>
    {
        /* The new current delayed list is empty.  Set xNextTaskUnblockTime to
         * the maximum possible value so it is  extremely unlikely that the
         * if( xTickCount >= xNextTaskUnblockTime ) test will pass until
         * there is an item in the delayed list. */
        xNextTaskUnblockTime = portMAX_DELAY;
 8000ed6:	4b09      	ldr	r3, [pc, #36]	; (8000efc <prvResetNextTaskUnblockTime+0x34>)
 8000ed8:	f04f 32ff 	mov.w	r2, #4294967295	; 0xffffffff
 8000edc:	601a      	str	r2, [r3, #0]
         * the item at the head of the delayed list.  This is the time at
         * which the task at the head of the delayed list should be removed
         * from the Blocked state. */
        xNextTaskUnblockTime = listGET_ITEM_VALUE_OF_HEAD_ENTRY( pxDelayedTaskList );
    }
}
 8000ede:	e005      	b.n	8000eec <prvResetNextTaskUnblockTime+0x24>
        xNextTaskUnblockTime = listGET_ITEM_VALUE_OF_HEAD_ENTRY( pxDelayedTaskList );
 8000ee0:	4b05      	ldr	r3, [pc, #20]	; (8000ef8 <prvResetNextTaskUnblockTime+0x30>)
 8000ee2:	681b      	ldr	r3, [r3, #0]
 8000ee4:	68db      	ldr	r3, [r3, #12]
 8000ee6:	681b      	ldr	r3, [r3, #0]
 8000ee8:	4a04      	ldr	r2, [pc, #16]	; (8000efc <prvResetNextTaskUnblockTime+0x34>)
 8000eea:	6013      	str	r3, [r2, #0]
}
 8000eec:	bf00      	nop
 8000eee:	46bd      	mov	sp, r7
 8000ef0:	f85d 7b04 	ldr.w	r7, [sp], #4
 8000ef4:	4770      	bx	lr
 8000ef6:	bf00      	nop
 8000ef8:	200000b0 	.word	0x200000b0
 8000efc:	200000cc 	.word	0x200000cc

08000f00 <SVC_Handler>:
}
/*-----------------------------------------------------------*/

void vPortSVCHandler( void )
{
    __asm volatile (
 8000f00:	4b07      	ldr	r3, [pc, #28]	; (8000f20 <pxCurrentTCBConst2>)
 8000f02:	6819      	ldr	r1, [r3, #0]
 8000f04:	6808      	ldr	r0, [r1, #0]
 8000f06:	e8b0 4ff0 	ldmia.w	r0!, {r4, r5, r6, r7, r8, r9, sl, fp, lr}
 8000f0a:	f380 8809 	msr	PSP, r0
 8000f0e:	f3bf 8f6f 	isb	sy
 8000f12:	f04f 0000 	mov.w	r0, #0
 8000f16:	f380 8811 	msr	BASEPRI, r0
 8000f1a:	4770      	bx	lr
 8000f1c:	f3af 8000 	nop.w

08000f20 <pxCurrentTCBConst2>:
 8000f20:	20000048 	.word	0x20000048
        "	bx r14							\n"
        "									\n"
        "	.align 4						\n"
        "pxCurrentTCBConst2: .word pxCurrentTCB				\n"
        );
}
 8000f24:	bf00      	nop
 8000f26:	bf00      	nop
	...

08000f30 <PendSV_Handler>:

void xPortPendSVHandler( void )
{
    /* This is a naked function. */

    __asm volatile
 8000f30:	f3ef 8009 	mrs	r0, PSP
 8000f34:	f3bf 8f6f 	isb	sy
 8000f38:	4b15      	ldr	r3, [pc, #84]	; (8000f90 <pxCurrentTCBConst>)
 8000f3a:	681a      	ldr	r2, [r3, #0]
 8000f3c:	f01e 0f10 	tst.w	lr, #16
 8000f40:	bf08      	it	eq
 8000f42:	ed20 8a10 	vstmdbeq	r0!, {s16-s31}
 8000f46:	e920 4ff0 	stmdb	r0!, {r4, r5, r6, r7, r8, r9, sl, fp, lr}
 8000f4a:	6010      	str	r0, [r2, #0]
 8000f4c:	e92d 0009 	stmdb	sp!, {r0, r3}
 8000f50:	f04f 0050 	mov.w	r0, #80	; 0x50
 8000f54:	f380 8811 	msr	BASEPRI, r0
 8000f58:	f3bf 8f4f 	dsb	sy
 8000f5c:	f3bf 8f6f 	isb	sy
 8000f60:	f7ff ff56 	bl	8000e10 <vTaskSwitchContext>
 8000f64:	f04f 0000 	mov.w	r0, #0
 8000f68:	f380 8811 	msr	BASEPRI, r0
 8000f6c:	bc09      	pop	{r0, r3}
 8000f6e:	6819      	ldr	r1, [r3, #0]
 8000f70:	6808      	ldr	r0, [r1, #0]
 8000f72:	e8b0 4ff0 	ldmia.w	r0!, {r4, r5, r6, r7, r8, r9, sl, fp, lr}
 8000f76:	f01e 0f10 	tst.w	lr, #16
 8000f7a:	bf08      	it	eq
 8000f7c:	ecb0 8a10 	vldmiaeq	r0!, {s16-s31}
 8000f80:	f380 8809 	msr	PSP, r0
 8000f84:	f3bf 8f6f 	isb	sy
 8000f88:	4770      	bx	lr
 8000f8a:	bf00      	nop
 8000f8c:	f3af 8000 	nop.w

08000f90 <pxCurrentTCBConst>:
 8000f90:	20000048 	.word	0x20000048
        "										\n"
        "	.align 4							\n"
        "pxCurrentTCBConst: .word pxCurrentTCB	\n"
        ::"i" ( configMAX_SYSCALL_INTERRUPT_PRIORITY )
    );
}
 8000f94:	bf00      	nop
 8000f96:	bf00      	nop

08000f98 <SysTick_Handler>:
/*-----------------------------------------------------------*/

void xPortSysTickHandler( void )
{
 8000f98:	b580      	push	{r7, lr}
 8000f9a:	b082      	sub	sp, #8
 8000f9c:	af00      	add	r7, sp, #0
        __asm volatile
 8000f9e:	f04f 0350 	mov.w	r3, #80	; 0x50
 8000fa2:	f383 8811 	msr	BASEPRI, r3
 8000fa6:	f3bf 8f6f 	isb	sy
 8000faa:	f3bf 8f4f 	dsb	sy
 8000fae:	607b      	str	r3, [r7, #4]
    }
 8000fb0:	bf00      	nop
     * save and then restore the interrupt mask value as its value is already
     * known. */
    portDISABLE_INTERRUPTS();
    {
        /* Increment the RTOS tick. */
        if( xTaskIncrementTick() != pdFALSE )
 8000fb2:	f7ff fe39 	bl	8000c28 <xTaskIncrementTick>
 8000fb6:	4603      	mov	r3, r0
 8000fb8:	2b00      	cmp	r3, #0
 8000fba:	d003      	beq.n	8000fc4 <SysTick_Handler+0x2c>
        {
            /* A context switch is required.  Context switching is performed in
             * the PendSV interrupt.  Pend the PendSV interrupt. */
            portNVIC_INT_CTRL_REG = portNVIC_PENDSVSET_BIT;
 8000fbc:	4b06      	ldr	r3, [pc, #24]	; (8000fd8 <SysTick_Handler+0x40>)
 8000fbe:	f04f 5280 	mov.w	r2, #268435456	; 0x10000000
 8000fc2:	601a      	str	r2, [r3, #0]
 8000fc4:	2300      	movs	r3, #0
 8000fc6:	603b      	str	r3, [r7, #0]
    }
/*-----------------------------------------------------------*/

    portFORCE_INLINE static void vPortSetBASEPRI( uint32_t ulNewMaskValue )
    {
        __asm volatile
 8000fc8:	683b      	ldr	r3, [r7, #0]
 8000fca:	f383 8811 	msr	BASEPRI, r3
        (
            "	msr basepri, %0	"::"r" ( ulNewMaskValue ) : "memory"
        );
    }
 8000fce:	bf00      	nop
        }
    }
    portENABLE_INTERRUPTS();
}
 8000fd0:	bf00      	nop
 8000fd2:	3708      	adds	r7, #8
 8000fd4:	46bd      	mov	sp, r7
 8000fd6:	bd80      	pop	{r7, pc}
 8000fd8:	e000ed04 	.word	0xe000ed04

08000fdc <GPIOe_out_init>:
//TIM_HandleTypeDef* modbusTimer;



/* Functions -----------------------------------------------------------------*/
void GPIOe_out_init(void){
 8000fdc:	b480      	push	{r7}
 8000fde:	af00      	add	r7, sp, #0

  /*Тактирование порта на шине AHB1 */
  RCC->AHB1ENR |= RCC_AHB1ENR_GPIOEEN;
 8000fe0:	4b17      	ldr	r3, [pc, #92]	; (8001040 <GPIOe_out_init+0x64>)
 8000fe2:	6b1b      	ldr	r3, [r3, #48]	; 0x30
 8000fe4:	4a16      	ldr	r2, [pc, #88]	; (8001040 <GPIOe_out_init+0x64>)
 8000fe6:	f043 0310 	orr.w	r3, r3, #16
 8000fea:	6313      	str	r3, [r2, #48]	; 0x30

  //GPIOx(E)
  /*01 = Genral output mode*/
  GPIOE->MODER |= GPIO_MODER_MODE13_0;
 8000fec:	4b15      	ldr	r3, [pc, #84]	; (8001044 <GPIOe_out_init+0x68>)
 8000fee:	681b      	ldr	r3, [r3, #0]
 8000ff0:	4a14      	ldr	r2, [pc, #80]	; (8001044 <GPIOe_out_init+0x68>)
 8000ff2:	f043 6380 	orr.w	r3, r3, #67108864	; 0x4000000
 8000ff6:	6013      	str	r3, [r2, #0]
  GPIOE->MODER |= GPIO_MODER_MODE14_0;
 8000ff8:	4b12      	ldr	r3, [pc, #72]	; (8001044 <GPIOe_out_init+0x68>)
 8000ffa:	681b      	ldr	r3, [r3, #0]
 8000ffc:	4a11      	ldr	r2, [pc, #68]	; (8001044 <GPIOe_out_init+0x68>)
 8000ffe:	f043 5380 	orr.w	r3, r3, #268435456	; 0x10000000
 8001002:	6013      	str	r3, [r2, #0]
  GPIOE->MODER |= GPIO_MODER_MODE15_0;
 8001004:	4b0f      	ldr	r3, [pc, #60]	; (8001044 <GPIOe_out_init+0x68>)
 8001006:	681b      	ldr	r3, [r3, #0]
 8001008:	4a0e      	ldr	r2, [pc, #56]	; (8001044 <GPIOe_out_init+0x68>)
 800100a:	f043 4380 	orr.w	r3, r3, #1073741824	; 0x40000000
 800100e:	6013      	str	r3, [r2, #0]
  //Disable all LEDs
  LED_13_OFF;
 8001010:	4b0c      	ldr	r3, [pc, #48]	; (8001044 <GPIOe_out_init+0x68>)
 8001012:	699b      	ldr	r3, [r3, #24]
 8001014:	4a0b      	ldr	r2, [pc, #44]	; (8001044 <GPIOe_out_init+0x68>)
 8001016:	f443 5300 	orr.w	r3, r3, #8192	; 0x2000
 800101a:	6193      	str	r3, [r2, #24]
  LED_14_OFF;
 800101c:	4b09      	ldr	r3, [pc, #36]	; (8001044 <GPIOe_out_init+0x68>)
 800101e:	699b      	ldr	r3, [r3, #24]
 8001020:	4a08      	ldr	r2, [pc, #32]	; (8001044 <GPIOe_out_init+0x68>)
 8001022:	f443 4380 	orr.w	r3, r3, #16384	; 0x4000
 8001026:	6193      	str	r3, [r2, #24]
  LED_15_OFF;
 8001028:	4b06      	ldr	r3, [pc, #24]	; (8001044 <GPIOe_out_init+0x68>)
 800102a:	699b      	ldr	r3, [r3, #24]
 800102c:	4a05      	ldr	r2, [pc, #20]	; (8001044 <GPIOe_out_init+0x68>)
 800102e:	f443 4300 	orr.w	r3, r3, #32768	; 0x8000
 8001032:	6193      	str	r3, [r2, #24]

}
 8001034:	bf00      	nop
 8001036:	46bd      	mov	sp, r7
 8001038:	f85d 7b04 	ldr.w	r7, [sp], #4
 800103c:	4770      	bx	lr
 800103e:	bf00      	nop
 8001040:	40023800 	.word	0x40023800
 8001044:	40021000 	.word	0x40021000

08001048 <__NVIC_ClearPendingIRQ>:
{
 8001048:	b480      	push	{r7}
 800104a:	b083      	sub	sp, #12
 800104c:	af00      	add	r7, sp, #0
 800104e:	4603      	mov	r3, r0
 8001050:	71fb      	strb	r3, [r7, #7]
  if ((int32_t)(IRQn) >= 0)
 8001052:	f997 3007 	ldrsb.w	r3, [r7, #7]
 8001056:	2b00      	cmp	r3, #0
 8001058:	db0c      	blt.n	8001074 <__NVIC_ClearPendingIRQ+0x2c>
    NVIC->ICPR[(((uint32_t)IRQn) >> 5UL)] = (uint32_t)(1UL << (((uint32_t)IRQn) & 0x1FUL));
 800105a:	79fb      	ldrb	r3, [r7, #7]
 800105c:	f003 021f 	and.w	r2, r3, #31
 8001060:	4907      	ldr	r1, [pc, #28]	; (8001080 <__NVIC_ClearPendingIRQ+0x38>)
 8001062:	f997 3007 	ldrsb.w	r3, [r7, #7]
 8001066:	095b      	lsrs	r3, r3, #5
 8001068:	2001      	movs	r0, #1
 800106a:	fa00 f202 	lsl.w	r2, r0, r2
 800106e:	3360      	adds	r3, #96	; 0x60
 8001070:	f841 2023 	str.w	r2, [r1, r3, lsl #2]
}
 8001074:	bf00      	nop
 8001076:	370c      	adds	r7, #12
 8001078:	46bd      	mov	sp, r7
 800107a:	f85d 7b04 	ldr.w	r7, [sp], #4
 800107e:	4770      	bx	lr
 8001080:	e000e100 	.word	0xe000e100

08001084 <prvvUARTTxReadyISR>:
 * a new character can be sent. The protocol stack will then call
 * xMBPortSerialPutByte( ) to send the character.
 */
/* --------------------------------------------------------------------------*/
static void prvvUARTTxReadyISR(void)
{
 8001084:	b580      	push	{r7, lr}
 8001086:	af00      	add	r7, sp, #0
  pxMBFrameCBTransmitterEmpty();
 8001088:	4b02      	ldr	r3, [pc, #8]	; (8001094 <prvvUARTTxReadyISR+0x10>)
 800108a:	681b      	ldr	r3, [r3, #0]
 800108c:	4798      	blx	r3
}
 800108e:	bf00      	nop
 8001090:	bd80      	pop	{r7, pc}
 8001092:	bf00      	nop
 8001094:	200000d8 	.word	0x200000d8

08001098 <prvvUARTRxISR>:
 * protocol stack will then call xMBPortSerialGetByte( ) to retrieve the
 * character.
 */
/* --------------------------------------------------------------------------*/
static void prvvUARTRxISR(void)
{
 8001098:	b580      	push	{r7, lr}
 800109a:	af00      	add	r7, sp, #0
  pxMBFrameCBByteReceived();
 800109c:	4b02      	ldr	r3, [pc, #8]	; (80010a8 <prvvUARTRxISR+0x10>)
 800109e:	681b      	ldr	r3, [r3, #0]
 80010a0:	4798      	blx	r3
}
 80010a2:	bf00      	nop
 80010a4:	bd80      	pop	{r7, pc}
 80010a6:	bf00      	nop
 80010a8:	200000d4 	.word	0x200000d4

080010ac <USART1_IRQHandler>:




/* --------------------------------------------------------------------------*/
void USART1_IRQHandler(void) {
 80010ac:	b580      	push	{r7, lr}
 80010ae:	af00      	add	r7, sp, #0

	if (READ_BIT(USART2->SR, USART_SR_RXNE))
 80010b0:	4b07      	ldr	r3, [pc, #28]	; (80010d0 <USART1_IRQHandler+0x24>)
 80010b2:	681b      	ldr	r3, [r3, #0]
 80010b4:	f003 0320 	and.w	r3, r3, #32
 80010b8:	2b00      	cmp	r3, #0
 80010ba:	d002      	beq.n	80010c2 <USART1_IRQHandler+0x16>
		prvvUARTRxISR();
 80010bc:	f7ff ffec 	bl	8001098 <prvvUARTRxISR>
 80010c0:	e001      	b.n	80010c6 <USART1_IRQHandler+0x1a>
	else
		prvvUARTTxReadyISR();
 80010c2:	f7ff ffdf 	bl	8001084 <prvvUARTTxReadyISR>

	//"Сброс" прерывания
	NVIC_ClearPendingIRQ(USART1_IRQn);
 80010c6:	2025      	movs	r0, #37	; 0x25
 80010c8:	f7ff ffbe 	bl	8001048 <__NVIC_ClearPendingIRQ>
}
 80010cc:	bf00      	nop
 80010ce:	bd80      	pop	{r7, pc}
 80010d0:	40004400 	.word	0x40004400

080010d4 <Reset_Handler>:

  .section .text.Reset_Handler
  .weak Reset_Handler
  .type Reset_Handler, %function
Reset_Handler:
  ldr   r0, =_estack
 80010d4:	480d      	ldr	r0, [pc, #52]	; (800110c <LoopForever+0x2>)
  mov   sp, r0          /* set stack pointer */
 80010d6:	4685      	mov	sp, r0
/* Call the clock system initialization function.*/
  bl  SystemInit
 80010d8:	f7ff f88a 	bl	80001f0 <SystemInit>

/* Copy the data segment initializers from flash to SRAM */
  ldr r0, =_sdata
 80010dc:	480c      	ldr	r0, [pc, #48]	; (8001110 <LoopForever+0x6>)
  ldr r1, =_edata
 80010de:	490d      	ldr	r1, [pc, #52]	; (8001114 <LoopForever+0xa>)
  ldr r2, =_sidata
 80010e0:	4a0d      	ldr	r2, [pc, #52]	; (8001118 <LoopForever+0xe>)
  movs r3, #0
 80010e2:	2300      	movs	r3, #0
  b LoopCopyDataInit
 80010e4:	e002      	b.n	80010ec <LoopCopyDataInit>

080010e6 <CopyDataInit>:

CopyDataInit:
  ldr r4, [r2, r3]
 80010e6:	58d4      	ldr	r4, [r2, r3]
  str r4, [r0, r3]
 80010e8:	50c4      	str	r4, [r0, r3]
  adds r3, r3, #4
 80010ea:	3304      	adds	r3, #4

080010ec <LoopCopyDataInit>:

LoopCopyDataInit:
  adds r4, r0, r3
 80010ec:	18c4      	adds	r4, r0, r3
  cmp r4, r1
 80010ee:	428c      	cmp	r4, r1
  bcc CopyDataInit
 80010f0:	d3f9      	bcc.n	80010e6 <CopyDataInit>

/* Zero fill the bss segment. */
  ldr r2, =_sbss
 80010f2:	4a0a      	ldr	r2, [pc, #40]	; (800111c <LoopForever+0x12>)
  ldr r4, =_ebss
 80010f4:	4c0a      	ldr	r4, [pc, #40]	; (8001120 <LoopForever+0x16>)
  movs r3, #0
 80010f6:	2300      	movs	r3, #0
  b LoopFillZerobss
 80010f8:	e001      	b.n	80010fe <LoopFillZerobss>

080010fa <FillZerobss>:

FillZerobss:
  str  r3, [r2]
 80010fa:	6013      	str	r3, [r2, #0]
  adds r2, r2, #4
 80010fc:	3204      	adds	r2, #4

080010fe <LoopFillZerobss>:

LoopFillZerobss:
  cmp r2, r4
 80010fe:	42a2      	cmp	r2, r4
  bcc FillZerobss
 8001100:	d3fb      	bcc.n	80010fa <FillZerobss>

/* Call static constructors */
  bl __libc_init_array
 8001102:	f000 f811 	bl	8001128 <__libc_init_array>
/* Call the application's entry point.*/
  bl main
 8001106:	f7ff fb19 	bl	800073c <main>

0800110a <LoopForever>:

LoopForever:
  b LoopForever
 800110a:	e7fe      	b.n	800110a <LoopForever>
  ldr   r0, =_estack
 800110c:	20020000 	.word	0x20020000
  ldr r0, =_sdata
 8001110:	20000000 	.word	0x20000000
  ldr r1, =_edata
 8001114:	20000004 	.word	0x20000004
  ldr r2, =_sidata
 8001118:	080011a0 	.word	0x080011a0
  ldr r2, =_sbss
 800111c:	20000004 	.word	0x20000004
  ldr r4, =_ebss
 8001120:	200000dc 	.word	0x200000dc

08001124 <ADC_IRQHandler>:
 * @retval : None
*/
  .section .text.Default_Handler,"ax",%progbits
Default_Handler:
Infinite_Loop:
  b Infinite_Loop
 8001124:	e7fe      	b.n	8001124 <ADC_IRQHandler>
	...

08001128 <__libc_init_array>:
 8001128:	b570      	push	{r4, r5, r6, lr}
 800112a:	4d0d      	ldr	r5, [pc, #52]	; (8001160 <__libc_init_array+0x38>)
 800112c:	4c0d      	ldr	r4, [pc, #52]	; (8001164 <__libc_init_array+0x3c>)
 800112e:	1b64      	subs	r4, r4, r5
 8001130:	10a4      	asrs	r4, r4, #2
 8001132:	2600      	movs	r6, #0
 8001134:	42a6      	cmp	r6, r4
 8001136:	d109      	bne.n	800114c <__libc_init_array+0x24>
 8001138:	4d0b      	ldr	r5, [pc, #44]	; (8001168 <__libc_init_array+0x40>)
 800113a:	4c0c      	ldr	r4, [pc, #48]	; (800116c <__libc_init_array+0x44>)
 800113c:	f000 f818 	bl	8001170 <_init>
 8001140:	1b64      	subs	r4, r4, r5
 8001142:	10a4      	asrs	r4, r4, #2
 8001144:	2600      	movs	r6, #0
 8001146:	42a6      	cmp	r6, r4
 8001148:	d105      	bne.n	8001156 <__libc_init_array+0x2e>
 800114a:	bd70      	pop	{r4, r5, r6, pc}
 800114c:	f855 3b04 	ldr.w	r3, [r5], #4
 8001150:	4798      	blx	r3
 8001152:	3601      	adds	r6, #1
 8001154:	e7ee      	b.n	8001134 <__libc_init_array+0xc>
 8001156:	f855 3b04 	ldr.w	r3, [r5], #4
 800115a:	4798      	blx	r3
 800115c:	3601      	adds	r6, #1
 800115e:	e7f2      	b.n	8001146 <__libc_init_array+0x1e>
 8001160:	08001198 	.word	0x08001198
 8001164:	08001198 	.word	0x08001198
 8001168:	08001198 	.word	0x08001198
 800116c:	0800119c 	.word	0x0800119c

08001170 <_init>:
 8001170:	b5f8      	push	{r3, r4, r5, r6, r7, lr}
 8001172:	bf00      	nop
 8001174:	bcf8      	pop	{r3, r4, r5, r6, r7}
 8001176:	bc08      	pop	{r3}
 8001178:	469e      	mov	lr, r3
 800117a:	4770      	bx	lr

0800117c <_fini>:
 800117c:	b5f8      	push	{r3, r4, r5, r6, r7, lr}
 800117e:	bf00      	nop
 8001180:	bcf8      	pop	{r3, r4, r5, r6, r7}
 8001182:	bc08      	pop	{r3}
 8001184:	469e      	mov	lr, r3
 8001186:	4770      	bx	lr
